
fw/firmware.elf:     file format elf32-littleriscv

Sections:
Idx Name          Size      VMA       LMA       File off  Algn
  0 .stack        00000e00  20000000  20000000  0000b000  2**0
                  ALLOC
  1 .text         00007d60  00000000  00000000  00001000  2**2
                  CONTENTS, ALLOC, LOAD, READONLY, CODE
  2 .rodata       00001920  00007d60  00007d60  00008d60  2**3
                  CONTENTS, ALLOC, LOAD, READONLY, DATA
  3 .data         0000000c  20000e00  00009680  0000ae00  2**2
                  CONTENTS, ALLOC, LOAD, DATA
  4 .bss          000000b0  20000e0c  0000968c  0000ae0c  2**2
                  ALLOC

Disassembly of section .text:

00000000 <_stext>:
       0:	0f80006f          	j	f8 <exc_handler>
       4:	00000013          	nop
       8:	00000013          	nop
       c:	00000013          	nop
      10:	00000013          	nop
      14:	00000013          	nop
      18:	00000013          	nop
      1c:	00000013          	nop
      20:	00000013          	nop
      24:	00000013          	nop
      28:	00000013          	nop
      2c:	00000013          	nop
      30:	00000013          	nop
      34:	00000013          	nop
      38:	00000013          	nop
      3c:	00000013          	nop
      40:	00000013          	nop
      44:	00000013          	nop
      48:	00000013          	nop
      4c:	00000013          	nop
      50:	00000013          	nop
      54:	00000013          	nop
      58:	00000013          	nop
      5c:	00000013          	nop
      60:	00000013          	nop
      64:	00000013          	nop
      68:	00000013          	nop
      6c:	00000013          	nop
      70:	00000013          	nop
      74:	00000013          	nop
      78:	00000013          	nop
      7c:	0080006f          	j	84 <default_exc_handler>
      80:	0080006f          	j	88 <reset_handler>

00000084 <default_exc_handler>:
      84:	0000006f          	j	84 <default_exc_handler>

00000088 <reset_handler>:
      88:	20001117          	auipc	sp,0x20001
      8c:	d7810113          	add	sp,sp,-648 # 20000e00 <pmem>
      90:	010000ef          	jal	a0 <_preinit>
      94:	010000ef          	jal	a4 <_init>
      98:	10c000ef          	jal	1a4 <main>

0000009c <_fell_through>:
      9c:	0000006f          	j	9c <_fell_through>

000000a0 <_preinit>:
      a0:	00008067          	ret

000000a4 <_init>:
      a4:	00009317          	auipc	t1,0x9
      a8:	5dc30313          	add	t1,t1,1500 # 9680 <_erodata>
      ac:	20001397          	auipc	t2,0x20001
      b0:	d5438393          	add	t2,t2,-684 # 20000e00 <pmem>
      b4:	20001e17          	auipc	t3,0x20001
      b8:	d58e0e13          	add	t3,t3,-680 # 20000e0c <state_buf>
      bc:	01c38c63          	beq	t2,t3,d4 <_zero_bss>

000000c0 <_copy_data_loop>:
      c0:	00032283          	lw	t0,0(t1)
      c4:	0053a023          	sw	t0,0(t2)
      c8:	00430313          	add	t1,t1,4
      cc:	00438393          	add	t2,t2,4
      d0:	ffc398e3          	bne	t2,t3,c0 <_copy_data_loop>

000000d4 <_zero_bss>:
      d4:	20001317          	auipc	t1,0x20001
      d8:	d3830313          	add	t1,t1,-712 # 20000e0c <state_buf>
      dc:	20001397          	auipc	t2,0x20001
      e0:	de038393          	add	t2,t2,-544 # 20000ebc <_ebss>
      e4:	00730863          	beq	t1,t2,f4 <_init_done>

000000e8 <_zero_bss_loop>:
      e8:	00032023          	sw	zero,0(t1)
      ec:	00430313          	add	t1,t1,4
      f0:	fe731ce3          	bne	t1,t2,e8 <_zero_bss_loop>

000000f4 <_init_done>:
      f4:	00008067          	ret

000000f8 <exc_handler>:
      f8:	0000006f          	j	f8 <exc_handler>

000000fc <uart_init>:
      fc:	00010f13          	mv	t5,sp
     100:	ff010113          	add	sp,sp,-16
     104:	01e12023          	sw	t5,0(sp)
     108:	00112223          	sw	ra,4(sp)
     10c:	00b52023          	sw	a1,0(a0)
     110:	00412083          	lw	ra,4(sp)
     114:	01010113          	add	sp,sp,16
     118:	00008067          	ret

0000011c <uart_read>:
     11c:	00010f13          	mv	t5,sp
     120:	ff010113          	add	sp,sp,-16
     124:	01e12023          	sw	t5,0(sp)
     128:	00112223          	sw	ra,4(sp)
     12c:	00452283          	lw	t0,4(a0)
     130:	fff00f93          	li	t6,-1
     134:	fff28ce3          	beq	t0,t6,12c <uart_read+0x10>
     138:	0ff2f513          	zext.b	a0,t0
     13c:	00412083          	lw	ra,4(sp)
     140:	01010113          	add	sp,sp,16
     144:	00008067          	ret

00000148 <uart_write>:
     148:	00010f13          	mv	t5,sp
     14c:	ff010113          	add	sp,sp,-16
     150:	01e12023          	sw	t5,0(sp)
     154:	00112223          	sw	ra,4(sp)
     158:	00852303          	lw	t1,8(a0)
     15c:	fe031ee3          	bnez	t1,158 <uart_write+0x10>
     160:	00b52223          	sw	a1,4(a0)
     164:	00c52583          	lw	a1,12(a0)
     168:	0015f393          	and	t2,a1,1
     16c:	fe039ce3          	bnez	t2,164 <uart_write+0x1c>
     170:	00412083          	lw	ra,4(sp)
     174:	01010113          	add	sp,sp,16
     178:	00008067          	ret

0000017c <poweroff>:
     17c:	00010f13          	mv	t5,sp
     180:	ff010113          	add	sp,sp,-16
     184:	01e12023          	sw	t5,0(sp)
     188:	00112223          	sw	ra,4(sp)
     18c:	400002b7          	lui	t0,0x40000
     190:	00100313          	li	t1,1
     194:	00628023          	sb	t1,0(t0) # 40000000 <_ebss+0x1ffff144>
     198:	00412083          	lw	ra,4(sp)
     19c:	01010113          	add	sp,sp,16
     1a0:	00008067          	ret

000001a4 <main>:
     1a4:	00010f13          	mv	t5,sp
     1a8:	ff010113          	add	sp,sp,-16
     1ac:	01e12023          	sw	t5,0(sp)
     1b0:	00112223          	sw	ra,4(sp)
     1b4:	40001537          	lui	a0,0x40001
     1b8:	00200593          	li	a1,2
     1bc:	f41ff0ef          	jal	fc <uart_init>
     1c0:	028000ef          	jal	1e8 <read_command>
     1c4:	070000ef          	jal	234 <read_state>
     1c8:	0b8000ef          	jal	280 <compute>
     1cc:	0e8000ef          	jal	2b4 <write_state>
     1d0:	14c000ef          	jal	31c <write_response>
     1d4:	fa9ff0ef          	jal	17c <poweroff>
     1d8:	00000513          	li	a0,0
     1dc:	00412083          	lw	ra,4(sp)
     1e0:	01010113          	add	sp,sp,16
     1e4:	00008067          	ret

000001e8 <read_command>:
     1e8:	00010f13          	mv	t5,sp
     1ec:	ff010113          	add	sp,sp,-16
     1f0:	01e12023          	sw	t5,0(sp)
     1f4:	00112223          	sw	ra,4(sp)
     1f8:	00812423          	sw	s0,8(sp)
     1fc:	00000413          	li	s0,0
     200:	40001537          	lui	a0,0x40001
     204:	f19ff0ef          	jal	11c <uart_read>
     208:	200012b7          	lui	t0,0x20001
     20c:	e8828293          	add	t0,t0,-376 # 20000e88 <command_buf>
     210:	00828333          	add	t1,t0,s0
     214:	00a30023          	sb	a0,0(t1)
     218:	00140413          	add	s0,s0,1
     21c:	03100f93          	li	t6,49
     220:	fff460e3          	bltu	s0,t6,200 <read_command+0x18>
     224:	00812403          	lw	s0,8(sp)
     228:	00412083          	lw	ra,4(sp)
     22c:	01010113          	add	sp,sp,16
     230:	00008067          	ret

00000234 <read_state>:
     234:	00010f13          	mv	t5,sp
     238:	ff010113          	add	sp,sp,-16
     23c:	01e12023          	sw	t5,0(sp)
     240:	00112223          	sw	ra,4(sp)
     244:	20001fb7          	lui	t6,0x20001
     248:	e00fa283          	lw	t0,-512(t6) # 20000e00 <pmem>
     24c:	00828593          	add	a1,t0,8
     250:	0002a383          	lw	t2,0(t0)
     254:	00703333          	snez	t1,t2
     258:	03800613          	li	a2,56
     25c:	02c306b3          	mul	a3,t1,a2
     260:	00d585b3          	add	a1,a1,a3
     264:	20001537          	lui	a0,0x20001
     268:	e0c50513          	add	a0,a0,-500 # 20000e0c <state_buf>
     26c:	03800613          	li	a2,56
     270:	0f8000ef          	jal	368 <memcpy>
     274:	00412083          	lw	ra,4(sp)
     278:	01010113          	add	sp,sp,16
     27c:	00008067          	ret

00000280 <compute>:
     280:	00010f13          	mv	t5,sp
     284:	ff010113          	add	sp,sp,-16
     288:	01e12023          	sw	t5,0(sp)
     28c:	00112223          	sw	ra,4(sp)
     290:	20001537          	lui	a0,0x20001
     294:	e0c50513          	add	a0,a0,-500 # 20000e0c <state_buf>
     298:	200015b7          	lui	a1,0x20001
     29c:	e8858593          	add	a1,a1,-376 # 20000e88 <command_buf>
     2a0:	20001637          	lui	a2,0x20001
     2a4:	e4460613          	add	a2,a2,-444 # 20000e44 <response_buf>
     2a8:	00412083          	lw	ra,4(sp)
     2ac:	01010113          	add	sp,sp,16
     2b0:	1190006f          	j	bc8 <K2_Ecdsa_Impl_main>

000002b4 <write_state>:
     2b4:	00010f13          	mv	t5,sp
     2b8:	ff010113          	add	sp,sp,-16
     2bc:	01e12023          	sw	t5,0(sp)
     2c0:	00112223          	sw	ra,4(sp)
     2c4:	20001fb7          	lui	t6,0x20001
     2c8:	e00fa283          	lw	t0,-512(t6) # 20000e00 <pmem>
     2cc:	00828793          	add	a5,t0,8
     2d0:	0002a683          	lw	a3,0(t0)
     2d4:	00d03833          	snez	a6,a3
     2d8:	00100593          	li	a1,1
     2dc:	41058633          	sub	a2,a1,a6
     2e0:	03800393          	li	t2,56
     2e4:	02760533          	mul	a0,a2,t2
     2e8:	00a78533          	add	a0,a5,a0
     2ec:	200015b7          	lui	a1,0x20001
     2f0:	e0c58593          	add	a1,a1,-500 # 20000e0c <state_buf>
     2f4:	03800613          	li	a2,56
     2f8:	070000ef          	jal	368 <memcpy>
     2fc:	20001fb7          	lui	t6,0x20001
     300:	e00fa303          	lw	t1,-512(t6) # 20000e00 <pmem>
     304:	00032883          	lw	a7,0(t1)
     308:	0018b713          	seqz	a4,a7
     30c:	00e32023          	sw	a4,0(t1)
     310:	00412083          	lw	ra,4(sp)
     314:	01010113          	add	sp,sp,16
     318:	00008067          	ret

0000031c <write_response>:
     31c:	00010f13          	mv	t5,sp
     320:	ff010113          	add	sp,sp,-16
     324:	01e12023          	sw	t5,0(sp)
     328:	00112223          	sw	ra,4(sp)
     32c:	00812423          	sw	s0,8(sp)
     330:	00000413          	li	s0,0
     334:	40001537          	lui	a0,0x40001
     338:	20001337          	lui	t1,0x20001
     33c:	e4430313          	add	t1,t1,-444 # 20000e44 <response_buf>
     340:	008303b3          	add	t2,t1,s0
     344:	0003c583          	lbu	a1,0(t2)
     348:	e01ff0ef          	jal	148 <uart_write>
     34c:	00140413          	add	s0,s0,1
     350:	04100f93          	li	t6,65
     354:	fff460e3          	bltu	s0,t6,334 <write_response+0x18>
     358:	00812403          	lw	s0,8(sp)
     35c:	00412083          	lw	ra,4(sp)
     360:	01010113          	add	sp,sp,16
     364:	00008067          	ret

00000368 <memcpy>:
     368:	00010f13          	mv	t5,sp
     36c:	ff010113          	add	sp,sp,-16
     370:	01e12023          	sw	t5,0(sp)
     374:	00112223          	sw	ra,4(sp)
     378:	00050313          	mv	t1,a0
     37c:	00060693          	mv	a3,a2
     380:	fff68613          	add	a2,a3,-1
     384:	02068063          	beqz	a3,3a4 <memcpy+0x3c>
     388:	00030393          	mv	t2,t1
     38c:	00138313          	add	t1,t2,1
     390:	00058293          	mv	t0,a1
     394:	00128593          	add	a1,t0,1
     398:	0002c683          	lbu	a3,0(t0)
     39c:	00d38023          	sb	a3,0(t2)
     3a0:	fddff06f          	j	37c <memcpy+0x14>
     3a4:	00412083          	lw	ra,4(sp)
     3a8:	01010113          	add	sp,sp,16
     3ac:	00008067          	ret

000003b0 <memmove>:
     3b0:	00010f13          	mv	t5,sp
     3b4:	ff010113          	add	sp,sp,-16
     3b8:	01e12023          	sw	t5,0(sp)
     3bc:	00112223          	sw	ra,4(sp)
     3c0:	00050293          	mv	t0,a0
     3c4:	06558463          	beq	a1,t0,42c <memmove+0x7c>
     3c8:	02b2ee63          	bltu	t0,a1,404 <memmove+0x54>
     3cc:	00c28e33          	add	t3,t0,a2
     3d0:	fffe0813          	add	a6,t3,-1
     3d4:	00c58eb3          	add	t4,a1,a2
     3d8:	fffe8693          	add	a3,t4,-1
     3dc:	00060393          	mv	t2,a2
     3e0:	fff38613          	add	a2,t2,-1
     3e4:	04038463          	beqz	t2,42c <memmove+0x7c>
     3e8:	00080893          	mv	a7,a6
     3ec:	fff88813          	add	a6,a7,-1
     3f0:	00068713          	mv	a4,a3
     3f4:	fff70693          	add	a3,a4,-1
     3f8:	00074303          	lbu	t1,0(a4)
     3fc:	00688023          	sb	t1,0(a7)
     400:	fddff06f          	j	3dc <memmove+0x2c>
     404:	00060693          	mv	a3,a2
     408:	fff68613          	add	a2,a3,-1
     40c:	02068063          	beqz	a3,42c <memmove+0x7c>
     410:	00028793          	mv	a5,t0
     414:	00178293          	add	t0,a5,1
     418:	00058693          	mv	a3,a1
     41c:	00168593          	add	a1,a3,1
     420:	0006c683          	lbu	a3,0(a3)
     424:	00d78023          	sb	a3,0(a5)
     428:	fddff06f          	j	404 <memmove+0x54>
     42c:	00412083          	lw	ra,4(sp)
     430:	01010113          	add	sp,sp,16
     434:	00008067          	ret

00000438 <strlen>:
     438:	00010f13          	mv	t5,sp
     43c:	ff010113          	add	sp,sp,-16
     440:	01e12023          	sw	t5,0(sp)
     444:	00112223          	sw	ra,4(sp)
     448:	00050293          	mv	t0,a0
     44c:	00000513          	li	a0,0
     450:	0002c303          	lbu	t1,0(t0)
     454:	00030863          	beqz	t1,464 <strlen+0x2c>
     458:	00150513          	add	a0,a0,1 # 40001001 <_ebss+0x20000145>
     45c:	00128293          	add	t0,t0,1
     460:	ff1ff06f          	j	450 <strlen+0x18>
     464:	00412083          	lw	ra,4(sp)
     468:	01010113          	add	sp,sp,16
     46c:	00008067          	ret

00000470 <strchr>:
     470:	00010f13          	mv	t5,sp
     474:	ff010113          	add	sp,sp,-16
     478:	01e12023          	sw	t5,0(sp)
     47c:	00112223          	sw	ra,4(sp)
     480:	00054283          	lbu	t0,0(a0)
     484:	00028863          	beqz	t0,494 <strchr+0x24>
     488:	00b28863          	beq	t0,a1,498 <strchr+0x28>
     48c:	00150513          	add	a0,a0,1
     490:	ff1ff06f          	j	480 <strchr+0x10>
     494:	00000513          	li	a0,0
     498:	00412083          	lw	ra,4(sp)
     49c:	01010113          	add	sp,sp,16
     4a0:	00008067          	ret

000004a4 <memset>:
     4a4:	00010f13          	mv	t5,sp
     4a8:	ff010113          	add	sp,sp,-16
     4ac:	01e12023          	sw	t5,0(sp)
     4b0:	00112223          	sw	ra,4(sp)
     4b4:	00050313          	mv	t1,a0
     4b8:	00060293          	mv	t0,a2
     4bc:	fff28613          	add	a2,t0,-1
     4c0:	00028a63          	beqz	t0,4d4 <memset+0x30>
     4c4:	00030393          	mv	t2,t1
     4c8:	00138313          	add	t1,t2,1
     4cc:	00b38023          	sb	a1,0(t2)
     4d0:	fe9ff06f          	j	4b8 <memset+0x14>
     4d4:	00412083          	lw	ra,4(sp)
     4d8:	01010113          	add	sp,sp,16
     4dc:	00008067          	ret

000004e0 <i64_shl>:
     4e0:	00010f13          	mv	t5,sp
     4e4:	ff010113          	add	sp,sp,-16
     4e8:	01e12023          	sw	t5,0(sp)
     4ec:	00112223          	sw	ra,4(sp)
     4f0:	00050293          	mv	t0,a0
     4f4:	03f67793          	and	a5,a2,63
     4f8:	02078a63          	beqz	a5,52c <i64_shl+0x4c>
     4fc:	02000f93          	li	t6,32
     500:	03f7d063          	bge	a5,t6,520 <i64_shl+0x40>
     504:	00f29533          	sll	a0,t0,a5
     508:	00f593b3          	sll	t2,a1,a5
     50c:	02000593          	li	a1,32
     510:	40f58633          	sub	a2,a1,a5
     514:	00c2d733          	srl	a4,t0,a2
     518:	00e3e5b3          	or	a1,t2,a4
     51c:	0100006f          	j	52c <i64_shl+0x4c>
     520:	fe078313          	add	t1,a5,-32
     524:	006295b3          	sll	a1,t0,t1
     528:	00000513          	li	a0,0
     52c:	00412083          	lw	ra,4(sp)
     530:	01010113          	add	sp,sp,16
     534:	00008067          	ret

00000538 <i64_shr>:
     538:	00010f13          	mv	t5,sp
     53c:	ff010113          	add	sp,sp,-16
     540:	01e12023          	sw	t5,0(sp)
     544:	00112223          	sw	ra,4(sp)
     548:	03f67693          	and	a3,a2,63
     54c:	02068c63          	beqz	a3,584 <i64_shr+0x4c>
     550:	02000f93          	li	t6,32
     554:	03f6d063          	bge	a3,t6,574 <i64_shr+0x3c>
     558:	00d55333          	srl	t1,a0,a3
     55c:	02000793          	li	a5,32
     560:	40d78533          	sub	a0,a5,a3
     564:	00a59733          	sll	a4,a1,a0
     568:	00e36533          	or	a0,t1,a4
     56c:	00d5d2b3          	srl	t0,a1,a3
     570:	0180006f          	j	588 <i64_shr+0x50>
     574:	00000293          	li	t0,0
     578:	fe068613          	add	a2,a3,-32
     57c:	00c5d533          	srl	a0,a1,a2
     580:	0080006f          	j	588 <i64_shr+0x50>
     584:	00058293          	mv	t0,a1
     588:	00028593          	mv	a1,t0
     58c:	00412083          	lw	ra,4(sp)
     590:	01010113          	add	sp,sp,16
     594:	00008067          	ret

00000598 <K2_Ecdsa_Impl_do_none>:
     598:	00010f13          	mv	t5,sp
     59c:	ff010113          	add	sp,sp,-16
     5a0:	01e12023          	sw	t5,0(sp)
     5a4:	00112223          	sw	ra,4(sp)
     5a8:	00000393          	li	t2,0
     5ac:	00760333          	add	t1,a2,t2
     5b0:	00000293          	li	t0,0
     5b4:	00530023          	sb	t0,0(t1)
     5b8:	00138393          	add	t2,t2,1
     5bc:	04100f93          	li	t6,65
     5c0:	fff3e6e3          	bltu	t2,t6,5ac <K2_Ecdsa_Impl_do_none+0x14>
     5c4:	00412083          	lw	ra,4(sp)
     5c8:	01010113          	add	sp,sp,16
     5cc:	00008067          	ret

000005d0 <K2_Ecdsa_Impl_do_initialize_write_response>:
     5d0:	00010f13          	mv	t5,sp
     5d4:	ff010113          	add	sp,sp,-16
     5d8:	01e12023          	sw	t5,0(sp)
     5dc:	00112223          	sw	ra,4(sp)
     5e0:	00000313          	li	t1,0
     5e4:	006503b3          	add	t2,a0,t1
     5e8:	00000593          	li	a1,0
     5ec:	00b38023          	sb	a1,0(t2)
     5f0:	00130313          	add	t1,t1,1
     5f4:	04100f93          	li	t6,65
     5f8:	fff366e3          	bltu	t1,t6,5e4 <K2_Ecdsa_Impl_do_initialize_write_response+0x14>
     5fc:	00100293          	li	t0,1
     600:	00550023          	sb	t0,0(a0)
     604:	00412083          	lw	ra,4(sp)
     608:	01010113          	add	sp,sp,16
     60c:	00008067          	ret

00000610 <K2_Ecdsa_Impl_do_initialize_initialize_counter>:
     610:	00010f13          	mv	t5,sp
     614:	ff010113          	add	sp,sp,-16
     618:	01e12023          	sw	t5,0(sp)
     61c:	00112223          	sw	ra,4(sp)
     620:	00000393          	li	t2,0
     624:	00750333          	add	t1,a0,t2
     628:	00000293          	li	t0,0
     62c:	00530023          	sb	t0,0(t1)
     630:	00138393          	add	t2,t2,1
     634:	03800f93          	li	t6,56
     638:	fff3e6e3          	bltu	t2,t6,624 <K2_Ecdsa_Impl_do_initialize_initialize_counter+0x14>
     63c:	00412083          	lw	ra,4(sp)
     640:	01010113          	add	sp,sp,16
     644:	00008067          	ret

00000648 <K2_Ecdsa_Impl_do_initialize_initialize_prf_key>:
     648:	00010f13          	mv	t5,sp
     64c:	ff010113          	add	sp,sp,-16
     650:	01e12023          	sw	t5,0(sp)
     654:	00112223          	sw	ra,4(sp)
     658:	00158593          	add	a1,a1,1
     65c:	01000613          	li	a2,16
     660:	d09ff0ef          	jal	368 <memcpy>
     664:	00412083          	lw	ra,4(sp)
     668:	01010113          	add	sp,sp,16
     66c:	00008067          	ret

00000670 <K2_Ecdsa_Impl_do_initialize_initialize_private_key>:
     670:	00010f13          	mv	t5,sp
     674:	ff010113          	add	sp,sp,-16
     678:	01e12023          	sw	t5,0(sp)
     67c:	00112223          	sw	ra,4(sp)
     680:	01850513          	add	a0,a0,24
     684:	01158593          	add	a1,a1,17
     688:	02000613          	li	a2,32
     68c:	cddff0ef          	jal	368 <memcpy>
     690:	00412083          	lw	ra,4(sp)
     694:	01010113          	add	sp,sp,16
     698:	00008067          	ret

0000069c <K2_Ecdsa_Impl_do_initialize>:
     69c:	00010f13          	mv	t5,sp
     6a0:	ff010113          	add	sp,sp,-16
     6a4:	01e12023          	sw	t5,0(sp)
     6a8:	00112223          	sw	ra,4(sp)
     6ac:	00812423          	sw	s0,8(sp)
     6b0:	00912623          	sw	s1,12(sp)
     6b4:	00058413          	mv	s0,a1
     6b8:	00050493          	mv	s1,a0
     6bc:	00060513          	mv	a0,a2
     6c0:	f11ff0ef          	jal	5d0 <K2_Ecdsa_Impl_do_initialize_write_response>
     6c4:	00048513          	mv	a0,s1
     6c8:	f49ff0ef          	jal	610 <K2_Ecdsa_Impl_do_initialize_initialize_counter>
     6cc:	00040593          	mv	a1,s0
     6d0:	00048513          	mv	a0,s1
     6d4:	f75ff0ef          	jal	648 <K2_Ecdsa_Impl_do_initialize_initialize_prf_key>
     6d8:	00040593          	mv	a1,s0
     6dc:	00048513          	mv	a0,s1
     6e0:	00812403          	lw	s0,8(sp)
     6e4:	00c12483          	lw	s1,12(sp)
     6e8:	00412083          	lw	ra,4(sp)
     6ec:	01010113          	add	sp,sp,16
     6f0:	f81ff06f          	j	670 <K2_Ecdsa_Impl_do_initialize_initialize_private_key>

000006f4 <K2_Ecdsa_Impl_do_sign_counter_ok>:
     6f4:	00010f13          	mv	t5,sp
     6f8:	ff010113          	add	sp,sp,-16
     6fc:	01e12023          	sw	t5,0(sp)
     700:	00112223          	sw	ra,4(sp)
     704:	01050593          	add	a1,a0,16
     708:	00810513          	add	a0,sp,8
     70c:	00800613          	li	a2,8
     710:	c59ff0ef          	jal	368 <memcpy>
     714:	00812383          	lw	t2,8(sp)
     718:	00c12503          	lw	a0,12(sp)
     71c:	0183df13          	srl	t5,t2,0x18
     720:	0083d593          	srl	a1,t2,0x8
     724:	00010fb7          	lui	t6,0x10
     728:	f00f8f93          	add	t6,t6,-256 # ff00 <_erodata+0x6880>
     72c:	01f5f633          	and	a2,a1,t6
     730:	00cf68b3          	or	a7,t5,a2
     734:	00839813          	sll	a6,t2,0x8
     738:	00ff0fb7          	lui	t6,0xff0
     73c:	01f87733          	and	a4,a6,t6
     740:	00e8e333          	or	t1,a7,a4
     744:	01839593          	sll	a1,t2,0x18
     748:	ff000fb7          	lui	t6,0xff000
     74c:	01f5f7b3          	and	a5,a1,t6
     750:	00f36333          	or	t1,t1,a5
     754:	01855e93          	srl	t4,a0,0x18
     758:	00855f13          	srl	t5,a0,0x8
     75c:	00010fb7          	lui	t6,0x10
     760:	f00f8f93          	add	t6,t6,-256 # ff00 <_erodata+0x6880>
     764:	01ff7f33          	and	t5,t5,t6
     768:	01eeee33          	or	t3,t4,t5
     76c:	00851813          	sll	a6,a0,0x8
     770:	00ff0fb7          	lui	t6,0xff0
     774:	01f878b3          	and	a7,a6,t6
     778:	011e6733          	or	a4,t3,a7
     77c:	01851693          	sll	a3,a0,0x18
     780:	ff000fb7          	lui	t6,0xff000
     784:	01f6f533          	and	a0,a3,t6
     788:	00a762b3          	or	t0,a4,a0
     78c:	fff00693          	li	a3,-1
     790:	fff00613          	li	a2,-1
     794:	00030393          	mv	t2,t1
     798:	fff3c793          	not	a5,t2
     79c:	00c2b0b3          	sltu	ra,t0,a2
     7a0:	40c282b3          	sub	t0,t0,a2
     7a4:	40d30533          	sub	a0,t1,a3
     7a8:	40150533          	sub	a0,a0,ra
     7ac:	fff54293          	not	t0,a0
     7b0:	0057e5b3          	or	a1,a5,t0
     7b4:	00b3c333          	xor	t1,t2,a1
     7b8:	00000613          	li	a2,0
     7bc:	01f35593          	srl	a1,t1,0x1f
     7c0:	00000893          	li	a7,0
     7c4:	00100813          	li	a6,1
     7c8:	0105b0b3          	sltu	ra,a1,a6
     7cc:	41058e33          	sub	t3,a1,a6
     7d0:	411607b3          	sub	a5,a2,a7
     7d4:	401787b3          	sub	a5,a5,ra
     7d8:	fffe4713          	not	a4,t3
     7dc:	0ff77513          	zext.b	a0,a4
     7e0:	00412083          	lw	ra,4(sp)
     7e4:	01010113          	add	sp,sp,16
     7e8:	00008067          	ret

000007ec <K2_Ecdsa_Impl_do_sign_update_state>:
     7ec:	00010f13          	mv	t5,sp
     7f0:	fe010113          	add	sp,sp,-32
     7f4:	01e12023          	sw	t5,0(sp)
     7f8:	00112223          	sw	ra,4(sp)
     7fc:	00812423          	sw	s0,8(sp)
     800:	01050413          	add	s0,a0,16
     804:	01010513          	add	a0,sp,16
     808:	00800613          	li	a2,8
     80c:	00040593          	mv	a1,s0
     810:	b59ff0ef          	jal	368 <memcpy>
     814:	01012503          	lw	a0,16(sp)
     818:	01412583          	lw	a1,20(sp)
     81c:	01855793          	srl	a5,a0,0x18
     820:	00855693          	srl	a3,a0,0x8
     824:	00010fb7          	lui	t6,0x10
     828:	f00f8f93          	add	t6,t6,-256 # ff00 <_erodata+0x6880>
     82c:	01f6f2b3          	and	t0,a3,t6
     830:	0057e333          	or	t1,a5,t0
     834:	00851813          	sll	a6,a0,0x8
     838:	00ff0fb7          	lui	t6,0xff0
     83c:	01f87733          	and	a4,a6,t6
     840:	00e36f33          	or	t5,t1,a4
     844:	01851293          	sll	t0,a0,0x18
     848:	ff000fb7          	lui	t6,0xff000
     84c:	01f2f633          	and	a2,t0,t6
     850:	00cf6e33          	or	t3,t5,a2
     854:	0185d813          	srl	a6,a1,0x18
     858:	0085d613          	srl	a2,a1,0x8
     85c:	00010fb7          	lui	t6,0x10
     860:	f00f8f93          	add	t6,t6,-256 # ff00 <_erodata+0x6880>
     864:	01f67eb3          	and	t4,a2,t6
     868:	01d86f33          	or	t5,a6,t4
     86c:	00859e93          	sll	t4,a1,0x8
     870:	00ff0fb7          	lui	t6,0xff0
     874:	01fef3b3          	and	t2,t4,t6
     878:	007f6533          	or	a0,t5,t2
     87c:	01859593          	sll	a1,a1,0x18
     880:	ff000fb7          	lui	t6,0xff000
     884:	01f5ff33          	and	t5,a1,t6
     888:	01e566b3          	or	a3,a0,t5
     88c:	00000893          	li	a7,0
     890:	00100813          	li	a6,1
     894:	010683b3          	add	t2,a3,a6
     898:	0103b0b3          	sltu	ra,t2,a6
     89c:	011e07b3          	add	a5,t3,a7
     8a0:	001787b3          	add	a5,a5,ra
     8a4:	00078293          	mv	t0,a5
     8a8:	00038513          	mv	a0,t2
     8ac:	fff2c313          	not	t1,t0
     8b0:	fff54f13          	not	t5,a0
     8b4:	010f06b3          	add	a3,t5,a6
     8b8:	0106b0b3          	sltu	ra,a3,a6
     8bc:	01130eb3          	add	t4,t1,a7
     8c0:	001e8eb3          	add	t4,t4,ra
     8c4:	01d2e733          	or	a4,t0,t4
     8c8:	00000e93          	li	t4,0
     8cc:	01f75e13          	srl	t3,a4,0x1f
     8d0:	010e30b3          	sltu	ra,t3,a6
     8d4:	410e0533          	sub	a0,t3,a6
     8d8:	411e85b3          	sub	a1,t4,a7
     8dc:	401585b3          	sub	a1,a1,ra
     8e0:	00b7e733          	or	a4,a5,a1
     8e4:	00a3e633          	or	a2,t2,a0
     8e8:	01865693          	srl	a3,a2,0x18
     8ec:	00865813          	srl	a6,a2,0x8
     8f0:	00010fb7          	lui	t6,0x10
     8f4:	f00f8f93          	add	t6,t6,-256 # ff00 <_erodata+0x6880>
     8f8:	01f878b3          	and	a7,a6,t6
     8fc:	0116e3b3          	or	t2,a3,a7
     900:	00861e93          	sll	t4,a2,0x8
     904:	00ff0fb7          	lui	t6,0xff0
     908:	01fef6b3          	and	a3,t4,t6
     90c:	00d3ef33          	or	t5,t2,a3
     910:	01861513          	sll	a0,a2,0x18
     914:	ff000fb7          	lui	t6,0xff000
     918:	01f577b3          	and	a5,a0,t6
     91c:	00ff63b3          	or	t2,t5,a5
     920:	01875693          	srl	a3,a4,0x18
     924:	00875313          	srl	t1,a4,0x8
     928:	00010fb7          	lui	t6,0x10
     92c:	f00f8f93          	add	t6,t6,-256 # ff00 <_erodata+0x6880>
     930:	01f37e33          	and	t3,t1,t6
     934:	01c6e7b3          	or	a5,a3,t3
     938:	00871513          	sll	a0,a4,0x8
     93c:	00ff0fb7          	lui	t6,0xff0
     940:	01f572b3          	and	t0,a0,t6
     944:	0057e5b3          	or	a1,a5,t0
     948:	01871513          	sll	a0,a4,0x18
     94c:	ff000fb7          	lui	t6,0xff000
     950:	01f578b3          	and	a7,a0,t6
     954:	0115e333          	or	t1,a1,a7
     958:	00612823          	sw	t1,16(sp)
     95c:	00712a23          	sw	t2,20(sp)
     960:	01010593          	add	a1,sp,16
     964:	00800613          	li	a2,8
     968:	00040513          	mv	a0,s0
     96c:	9fdff0ef          	jal	368 <memcpy>
     970:	00812403          	lw	s0,8(sp)
     974:	00412083          	lw	ra,4(sp)
     978:	02010113          	add	sp,sp,32
     97c:	00008067          	ret

00000980 <K2_Ecdsa_Impl_do_sign_signature>:
     980:	00010f13          	mv	t5,sp
     984:	fc010113          	add	sp,sp,-64
     988:	01e12023          	sw	t5,0(sp)
     98c:	00112223          	sw	ra,4(sp)
     990:	00812423          	sw	s0,8(sp)
     994:	00912623          	sw	s1,12(sp)
     998:	01212823          	sw	s2,16(sp)
     99c:	00060413          	mv	s0,a2
     9a0:	00058293          	mv	t0,a1
     9a4:	00050593          	mv	a1,a0
     9a8:	00000e13          	li	t3,0
     9ac:	01c10c23          	sb	t3,24(sp)
     9b0:	00000613          	li	a2,0
     9b4:	00c10ca3          	sb	a2,25(sp)
     9b8:	00000713          	li	a4,0
     9bc:	00e10d23          	sb	a4,26(sp)
     9c0:	00000393          	li	t2,0
     9c4:	00710da3          	sb	t2,27(sp)
     9c8:	00000f13          	li	t5,0
     9cc:	01e10e23          	sb	t5,28(sp)
     9d0:	00000793          	li	a5,0
     9d4:	00f10ea3          	sb	a5,29(sp)
     9d8:	00000e13          	li	t3,0
     9dc:	01c10f23          	sb	t3,30(sp)
     9e0:	00000813          	li	a6,0
     9e4:	01010fa3          	sb	a6,31(sp)
     9e8:	00000e93          	li	t4,0
     9ec:	03d10023          	sb	t4,32(sp)
     9f0:	00000613          	li	a2,0
     9f4:	02c100a3          	sb	a2,33(sp)
     9f8:	00000893          	li	a7,0
     9fc:	03110123          	sb	a7,34(sp)
     a00:	00000313          	li	t1,0
     a04:	026101a3          	sb	t1,35(sp)
     a08:	00000793          	li	a5,0
     a0c:	02f10223          	sb	a5,36(sp)
     a10:	00000813          	li	a6,0
     a14:	030102a3          	sb	a6,37(sp)
     a18:	00000893          	li	a7,0
     a1c:	03110323          	sb	a7,38(sp)
     a20:	00000513          	li	a0,0
     a24:	02a103a3          	sb	a0,39(sp)
     a28:	00000693          	li	a3,0
     a2c:	02d10423          	sb	a3,40(sp)
     a30:	00000f13          	li	t5,0
     a34:	03e104a3          	sb	t5,41(sp)
     a38:	00000613          	li	a2,0
     a3c:	02c10523          	sb	a2,42(sp)
     a40:	00000713          	li	a4,0
     a44:	02e105a3          	sb	a4,43(sp)
     a48:	00000513          	li	a0,0
     a4c:	02a10623          	sb	a0,44(sp)
     a50:	00000313          	li	t1,0
     a54:	026106a3          	sb	t1,45(sp)
     a58:	00000693          	li	a3,0
     a5c:	02d10723          	sb	a3,46(sp)
     a60:	00000393          	li	t2,0
     a64:	027107a3          	sb	t2,47(sp)
     a68:	00000313          	li	t1,0
     a6c:	02610823          	sb	t1,48(sp)
     a70:	00000313          	li	t1,0
     a74:	026108a3          	sb	t1,49(sp)
     a78:	00000613          	li	a2,0
     a7c:	02c10923          	sb	a2,50(sp)
     a80:	00000713          	li	a4,0
     a84:	02e109a3          	sb	a4,51(sp)
     a88:	00000e93          	li	t4,0
     a8c:	03d10a23          	sb	t4,52(sp)
     a90:	00000693          	li	a3,0
     a94:	02d10aa3          	sb	a3,53(sp)
     a98:	00000513          	li	a0,0
     a9c:	02a10b23          	sb	a0,54(sp)
     aa0:	00000613          	li	a2,0
     aa4:	02c10ba3          	sb	a2,55(sp)
     aa8:	01058693          	add	a3,a1,16
     aac:	01858493          	add	s1,a1,24
     ab0:	00128913          	add	s2,t0,1
     ab4:	01810513          	add	a0,sp,24
     ab8:	01000613          	li	a2,16
     abc:	00800713          	li	a4,8
     ac0:	6c1060ef          	jal	7980 <Hacl_HMAC_compute_sha2_256>
     ac4:	00140513          	add	a0,s0,1
     ac8:	02000593          	li	a1,32
     acc:	01810713          	add	a4,sp,24
     ad0:	00048693          	mv	a3,s1
     ad4:	00090613          	mv	a2,s2
     ad8:	430050ef          	jal	5f08 <Hacl_P256_ecdsa_sign_p256_without_hash>
     adc:	0ff57513          	zext.b	a0,a0
     ae0:	00812403          	lw	s0,8(sp)
     ae4:	00c12483          	lw	s1,12(sp)
     ae8:	01012903          	lw	s2,16(sp)
     aec:	00412083          	lw	ra,4(sp)
     af0:	04010113          	add	sp,sp,64
     af4:	00008067          	ret

00000af8 <K2_Ecdsa_Impl_maybe_clear_buffer>:
     af8:	00010f13          	mv	t5,sp
     afc:	ff010113          	add	sp,sp,-16
     b00:	01e12023          	sw	t5,0(sp)
     b04:	00112223          	sw	ra,4(sp)
     b08:	00000693          	li	a3,0
     b0c:	00a6fe63          	bgeu	a3,a0,b28 <K2_Ecdsa_Impl_maybe_clear_buffer+0x30>
     b10:	00d583b3          	add	t2,a1,a3
     b14:	0003c283          	lbu	t0,0(t2)
     b18:	00c2f333          	and	t1,t0,a2
     b1c:	00638023          	sb	t1,0(t2)
     b20:	00168693          	add	a3,a3,1
     b24:	fe9ff06f          	j	b0c <K2_Ecdsa_Impl_maybe_clear_buffer+0x14>
     b28:	00412083          	lw	ra,4(sp)
     b2c:	01010113          	add	sp,sp,16
     b30:	00008067          	ret

00000b34 <K2_Ecdsa_Impl_do_sign>:
     b34:	00010f13          	mv	t5,sp
     b38:	fe010113          	add	sp,sp,-32
     b3c:	01e12023          	sw	t5,0(sp)
     b40:	00112223          	sw	ra,4(sp)
     b44:	00812423          	sw	s0,8(sp)
     b48:	00912623          	sw	s1,12(sp)
     b4c:	01212823          	sw	s2,16(sp)
     b50:	01312a23          	sw	s3,20(sp)
     b54:	00060413          	mv	s0,a2
     b58:	00058493          	mv	s1,a1
     b5c:	00050913          	mv	s2,a0
     b60:	00090513          	mv	a0,s2
     b64:	b91ff0ef          	jal	6f4 <K2_Ecdsa_Impl_do_sign_counter_ok>
     b68:	0ff57993          	zext.b	s3,a0
     b6c:	00040613          	mv	a2,s0
     b70:	00048593          	mv	a1,s1
     b74:	00090513          	mv	a0,s2
     b78:	e09ff0ef          	jal	980 <K2_Ecdsa_Impl_do_sign_signature>
     b7c:	0ff57593          	zext.b	a1,a0
     b80:	00b9f9b3          	and	s3,s3,a1
     b84:	00048593          	mv	a1,s1
     b88:	00090513          	mv	a0,s2
     b8c:	c61ff0ef          	jal	7ec <K2_Ecdsa_Impl_do_sign_update_state>
     b90:	00140593          	add	a1,s0,1
     b94:	04000513          	li	a0,64
     b98:	00098613          	mv	a2,s3
     b9c:	f5dff0ef          	jal	af8 <K2_Ecdsa_Impl_maybe_clear_buffer>
     ba0:	0019f393          	and	t2,s3,1
     ba4:	00238293          	add	t0,t2,2
     ba8:	00540023          	sb	t0,0(s0)
     bac:	00812403          	lw	s0,8(sp)
     bb0:	00c12483          	lw	s1,12(sp)
     bb4:	01012903          	lw	s2,16(sp)
     bb8:	01412983          	lw	s3,20(sp)
     bbc:	00412083          	lw	ra,4(sp)
     bc0:	02010113          	add	sp,sp,32
     bc4:	00008067          	ret

00000bc8 <K2_Ecdsa_Impl_main>:
     bc8:	00010f13          	mv	t5,sp
     bcc:	ff010113          	add	sp,sp,-16
     bd0:	01e12023          	sw	t5,0(sp)
     bd4:	00112223          	sw	ra,4(sp)
     bd8:	0005c283          	lbu	t0,0(a1)
     bdc:	00100f93          	li	t6,1
     be0:	03f28263          	beq	t0,t6,c04 <K2_Ecdsa_Impl_main+0x3c>
     be4:	00200f93          	li	t6,2
     be8:	01f28863          	beq	t0,t6,bf8 <K2_Ecdsa_Impl_main+0x30>
     bec:	00412083          	lw	ra,4(sp)
     bf0:	01010113          	add	sp,sp,16
     bf4:	9a5ff06f          	j	598 <K2_Ecdsa_Impl_do_none>
     bf8:	00412083          	lw	ra,4(sp)
     bfc:	01010113          	add	sp,sp,16
     c00:	f35ff06f          	j	b34 <K2_Ecdsa_Impl_do_sign>
     c04:	00412083          	lw	ra,4(sp)
     c08:	01010113          	add	sp,sp,16
     c0c:	a91ff06f          	j	69c <K2_Ecdsa_Impl_do_initialize>

00000c10 <FStar_UInt64_eq_mask>:
     c10:	00010f13          	mv	t5,sp
     c14:	ff010113          	add	sp,sp,-16
     c18:	01e12023          	sw	t5,0(sp)
     c1c:	00112223          	sw	ra,4(sp)
     c20:	00d5c2b3          	xor	t0,a1,a3
     c24:	00c545b3          	xor	a1,a0,a2
     c28:	fff2c813          	not	a6,t0
     c2c:	fff5c793          	not	a5,a1
     c30:	00000513          	li	a0,0
     c34:	00100393          	li	t2,1
     c38:	00778e33          	add	t3,a5,t2
     c3c:	007e30b3          	sltu	ra,t3,t2
     c40:	00a80733          	add	a4,a6,a0
     c44:	00170733          	add	a4,a4,ra
     c48:	00e2e333          	or	t1,t0,a4
     c4c:	00000693          	li	a3,0
     c50:	01f35613          	srl	a2,t1,0x1f
     c54:	007630b3          	sltu	ra,a2,t2
     c58:	40760fb3          	sub	t6,a2,t2
     c5c:	40a685b3          	sub	a1,a3,a0
     c60:	401585b3          	sub	a1,a1,ra
     c64:	000f8513          	mv	a0,t6
     c68:	00412083          	lw	ra,4(sp)
     c6c:	01010113          	add	sp,sp,16
     c70:	00008067          	ret

00000c74 <FStar_UInt64_gte_mask>:
     c74:	00010f13          	mv	t5,sp
     c78:	ff010113          	add	sp,sp,-16
     c7c:	01e12023          	sw	t5,0(sp)
     c80:	00112223          	sw	ra,4(sp)
     c84:	00068793          	mv	a5,a3
     c88:	00058293          	mv	t0,a1
     c8c:	00f2c733          	xor	a4,t0,a5
     c90:	00c530b3          	sltu	ra,a0,a2
     c94:	40c50f33          	sub	t5,a0,a2
     c98:	40d58533          	sub	a0,a1,a3
     c9c:	40150533          	sub	a0,a0,ra
     ca0:	00f543b3          	xor	t2,a0,a5
     ca4:	007767b3          	or	a5,a4,t2
     ca8:	00f2c333          	xor	t1,t0,a5
     cac:	00000613          	li	a2,0
     cb0:	01f35593          	srl	a1,t1,0x1f
     cb4:	00000893          	li	a7,0
     cb8:	00100813          	li	a6,1
     cbc:	0105b0b3          	sltu	ra,a1,a6
     cc0:	41058533          	sub	a0,a1,a6
     cc4:	411605b3          	sub	a1,a2,a7
     cc8:	401585b3          	sub	a1,a1,ra
     ccc:	00412083          	lw	ra,4(sp)
     cd0:	01010113          	add	sp,sp,16
     cd4:	00008067          	ret

00000cd8 <sha256_init>:
     cd8:	00010f13          	mv	t5,sp
     cdc:	ff010113          	add	sp,sp,-16
     ce0:	01e12023          	sw	t5,0(sp)
     ce4:	00112223          	sw	ra,4(sp)
     ce8:	00000393          	li	t2,0
     cec:	00008337          	lui	t1,0x8
     cf0:	d6030313          	add	t1,t1,-672 # 7d60 <_etext>
     cf4:	00239293          	sll	t0,t2,0x2
     cf8:	005305b3          	add	a1,t1,t0
     cfc:	0005a583          	lw	a1,0(a1)
     d00:	00550633          	add	a2,a0,t0
     d04:	00b62023          	sw	a1,0(a2)
     d08:	00138393          	add	t2,t2,1
     d0c:	00800f93          	li	t6,8
     d10:	fdf3eee3          	bltu	t2,t6,cec <sha256_init+0x14>
     d14:	00412083          	lw	ra,4(sp)
     d18:	01010113          	add	sp,sp,16
     d1c:	00008067          	ret

00000d20 <sha256_update>:
     d20:	00010f13          	mv	t5,sp
     d24:	f8010113          	add	sp,sp,-128
     d28:	01e12023          	sw	t5,0(sp)
     d2c:	00112223          	sw	ra,4(sp)
     d30:	00812423          	sw	s0,8(sp)
     d34:	00912623          	sw	s1,12(sp)
     d38:	01212823          	sw	s2,16(sp)
     d3c:	01312a23          	sw	s3,20(sp)
     d40:	00058493          	mv	s1,a1
     d44:	00050413          	mv	s0,a0
     d48:	00000f13          	li	t5,0
     d4c:	01e12c23          	sw	t5,24(sp)
     d50:	00000293          	li	t0,0
     d54:	00512e23          	sw	t0,28(sp)
     d58:	00000e93          	li	t4,0
     d5c:	03d12023          	sw	t4,32(sp)
     d60:	00000713          	li	a4,0
     d64:	02e12223          	sw	a4,36(sp)
     d68:	00000e93          	li	t4,0
     d6c:	03d12423          	sw	t4,40(sp)
     d70:	00000593          	li	a1,0
     d74:	02b12623          	sw	a1,44(sp)
     d78:	00000893          	li	a7,0
     d7c:	03112823          	sw	a7,48(sp)
     d80:	00000313          	li	t1,0
     d84:	02612a23          	sw	t1,52(sp)
     d88:	00000713          	li	a4,0
     d8c:	02e12c23          	sw	a4,56(sp)
     d90:	00000813          	li	a6,0
     d94:	03012e23          	sw	a6,60(sp)
     d98:	00000393          	li	t2,0
     d9c:	04712023          	sw	t2,64(sp)
     da0:	00000313          	li	t1,0
     da4:	04612223          	sw	t1,68(sp)
     da8:	00000f13          	li	t5,0
     dac:	05e12423          	sw	t5,72(sp)
     db0:	00000793          	li	a5,0
     db4:	04f12623          	sw	a5,76(sp)
     db8:	00000393          	li	t2,0
     dbc:	04712823          	sw	t2,80(sp)
     dc0:	00000393          	li	t2,0
     dc4:	04712a23          	sw	t2,84(sp)
     dc8:	00000e13          	li	t3,0
     dcc:	05c12c23          	sw	t3,88(sp)
     dd0:	00000813          	li	a6,0
     dd4:	05012e23          	sw	a6,92(sp)
     dd8:	00000293          	li	t0,0
     ddc:	06512023          	sw	t0,96(sp)
     de0:	00000713          	li	a4,0
     de4:	06e12223          	sw	a4,100(sp)
     de8:	00000613          	li	a2,0
     dec:	06c12423          	sw	a2,104(sp)
     df0:	00000793          	li	a5,0
     df4:	06f12623          	sw	a5,108(sp)
     df8:	00000e93          	li	t4,0
     dfc:	07d12823          	sw	t4,112(sp)
     e00:	00000693          	li	a3,0
     e04:	06d12a23          	sw	a3,116(sp)
     e08:	01810513          	add	a0,sp,24
     e0c:	02000613          	li	a2,32
     e10:	00048593          	mv	a1,s1
     e14:	d54ff0ef          	jal	368 <memcpy>
     e18:	07810513          	add	a0,sp,120
     e1c:	00400613          	li	a2,4
     e20:	00040593          	mv	a1,s0
     e24:	d44ff0ef          	jal	368 <memcpy>
     e28:	07812e83          	lw	t4,120(sp)
     e2c:	018ed313          	srl	t1,t4,0x18
     e30:	008ed693          	srl	a3,t4,0x8
     e34:	00010fb7          	lui	t6,0x10
     e38:	f00f8f93          	add	t6,t6,-256 # ff00 <_erodata+0x6880>
     e3c:	01f6f6b3          	and	a3,a3,t6
     e40:	00d36e33          	or	t3,t1,a3
     e44:	008e9393          	sll	t2,t4,0x8
     e48:	00ff0fb7          	lui	t6,0xff0
     e4c:	01f3f7b3          	and	a5,t2,t6
     e50:	00fe6833          	or	a6,t3,a5
     e54:	018e9313          	sll	t1,t4,0x18
     e58:	ff000fb7          	lui	t6,0xff000
     e5c:	01f378b3          	and	a7,t1,t6
     e60:	011868b3          	or	a7,a6,a7
     e64:	03112c23          	sw	a7,56(sp)
     e68:	00440593          	add	a1,s0,4
     e6c:	07810513          	add	a0,sp,120
     e70:	00400613          	li	a2,4
     e74:	cf4ff0ef          	jal	368 <memcpy>
     e78:	07812503          	lw	a0,120(sp)
     e7c:	01855593          	srl	a1,a0,0x18
     e80:	00855713          	srl	a4,a0,0x8
     e84:	00010fb7          	lui	t6,0x10
     e88:	f00f8f93          	add	t6,t6,-256 # ff00 <_erodata+0x6880>
     e8c:	01f77eb3          	and	t4,a4,t6
     e90:	01d5e3b3          	or	t2,a1,t4
     e94:	00851613          	sll	a2,a0,0x8
     e98:	00ff0fb7          	lui	t6,0xff0
     e9c:	01f677b3          	and	a5,a2,t6
     ea0:	00f3e2b3          	or	t0,t2,a5
     ea4:	01851813          	sll	a6,a0,0x18
     ea8:	ff000fb7          	lui	t6,0xff000
     eac:	01f87633          	and	a2,a6,t6
     eb0:	00c2e5b3          	or	a1,t0,a2
     eb4:	02b12e23          	sw	a1,60(sp)
     eb8:	00840593          	add	a1,s0,8
     ebc:	07810513          	add	a0,sp,120
     ec0:	00400613          	li	a2,4
     ec4:	ca4ff0ef          	jal	368 <memcpy>
     ec8:	07812783          	lw	a5,120(sp)
     ecc:	0187d713          	srl	a4,a5,0x18
     ed0:	0087d893          	srl	a7,a5,0x8
     ed4:	00010fb7          	lui	t6,0x10
     ed8:	f00f8f93          	add	t6,t6,-256 # ff00 <_erodata+0x6880>
     edc:	01f8f833          	and	a6,a7,t6
     ee0:	010766b3          	or	a3,a4,a6
     ee4:	00879613          	sll	a2,a5,0x8
     ee8:	00ff0fb7          	lui	t6,0xff0
     eec:	01f67633          	and	a2,a2,t6
     ef0:	00c6e733          	or	a4,a3,a2
     ef4:	01879793          	sll	a5,a5,0x18
     ef8:	ff000fb7          	lui	t6,0xff000
     efc:	01f7f533          	and	a0,a5,t6
     f00:	00a76633          	or	a2,a4,a0
     f04:	04c12023          	sw	a2,64(sp)
     f08:	00c40593          	add	a1,s0,12
     f0c:	07810513          	add	a0,sp,120
     f10:	00400613          	li	a2,4
     f14:	c54ff0ef          	jal	368 <memcpy>
     f18:	07812703          	lw	a4,120(sp)
     f1c:	01875793          	srl	a5,a4,0x18
     f20:	00875513          	srl	a0,a4,0x8
     f24:	00010fb7          	lui	t6,0x10
     f28:	f00f8f93          	add	t6,t6,-256 # ff00 <_erodata+0x6880>
     f2c:	01f573b3          	and	t2,a0,t6
     f30:	0077e3b3          	or	t2,a5,t2
     f34:	00871813          	sll	a6,a4,0x8
     f38:	00ff0fb7          	lui	t6,0xff0
     f3c:	01f87eb3          	and	t4,a6,t6
     f40:	01d3e533          	or	a0,t2,t4
     f44:	01871293          	sll	t0,a4,0x18
     f48:	ff000fb7          	lui	t6,0xff000
     f4c:	01f2f633          	and	a2,t0,t6
     f50:	00c56f33          	or	t5,a0,a2
     f54:	05e12223          	sw	t5,68(sp)
     f58:	01040593          	add	a1,s0,16
     f5c:	07810513          	add	a0,sp,120
     f60:	00400613          	li	a2,4
     f64:	c04ff0ef          	jal	368 <memcpy>
     f68:	07812e83          	lw	t4,120(sp)
     f6c:	018ed893          	srl	a7,t4,0x18
     f70:	008ede13          	srl	t3,t4,0x8
     f74:	00010fb7          	lui	t6,0x10
     f78:	f00f8f93          	add	t6,t6,-256 # ff00 <_erodata+0x6880>
     f7c:	01fe75b3          	and	a1,t3,t6
     f80:	00b8e5b3          	or	a1,a7,a1
     f84:	008e9f13          	sll	t5,t4,0x8
     f88:	00ff0fb7          	lui	t6,0xff0
     f8c:	01ff7733          	and	a4,t5,t6
     f90:	00e5ee33          	or	t3,a1,a4
     f94:	018e9793          	sll	a5,t4,0x18
     f98:	ff000fb7          	lui	t6,0xff000
     f9c:	01f7f8b3          	and	a7,a5,t6
     fa0:	011e65b3          	or	a1,t3,a7
     fa4:	04b12423          	sw	a1,72(sp)
     fa8:	01440593          	add	a1,s0,20
     fac:	07810513          	add	a0,sp,120
     fb0:	00400613          	li	a2,4
     fb4:	bb4ff0ef          	jal	368 <memcpy>
     fb8:	07812e83          	lw	t4,120(sp)
     fbc:	018ed293          	srl	t0,t4,0x18
     fc0:	008ed613          	srl	a2,t4,0x8
     fc4:	00010fb7          	lui	t6,0x10
     fc8:	f00f8f93          	add	t6,t6,-256 # ff00 <_erodata+0x6880>
     fcc:	01f676b3          	and	a3,a2,t6
     fd0:	00d2e733          	or	a4,t0,a3
     fd4:	008e9893          	sll	a7,t4,0x8
     fd8:	00ff0fb7          	lui	t6,0xff0
     fdc:	01f8f8b3          	and	a7,a7,t6
     fe0:	01176733          	or	a4,a4,a7
     fe4:	018e9593          	sll	a1,t4,0x18
     fe8:	ff000fb7          	lui	t6,0xff000
     fec:	01f5f333          	and	t1,a1,t6
     ff0:	00676e33          	or	t3,a4,t1
     ff4:	05c12623          	sw	t3,76(sp)
     ff8:	01840593          	add	a1,s0,24
     ffc:	07810513          	add	a0,sp,120
    1000:	00400613          	li	a2,4
    1004:	b64ff0ef          	jal	368 <memcpy>
    1008:	07812683          	lw	a3,120(sp)
    100c:	0186d813          	srl	a6,a3,0x18
    1010:	0086d313          	srl	t1,a3,0x8
    1014:	00010fb7          	lui	t6,0x10
    1018:	f00f8f93          	add	t6,t6,-256 # ff00 <_erodata+0x6880>
    101c:	01f37633          	and	a2,t1,t6
    1020:	00c86833          	or	a6,a6,a2
    1024:	00869313          	sll	t1,a3,0x8
    1028:	00ff0fb7          	lui	t6,0xff0
    102c:	01f37eb3          	and	t4,t1,t6
    1030:	01d862b3          	or	t0,a6,t4
    1034:	01869f13          	sll	t5,a3,0x18
    1038:	ff000fb7          	lui	t6,0xff000
    103c:	01ff7333          	and	t1,t5,t6
    1040:	0062e333          	or	t1,t0,t1
    1044:	04612823          	sw	t1,80(sp)
    1048:	01c40593          	add	a1,s0,28
    104c:	07810513          	add	a0,sp,120
    1050:	00400613          	li	a2,4
    1054:	b14ff0ef          	jal	368 <memcpy>
    1058:	07812783          	lw	a5,120(sp)
    105c:	0187de93          	srl	t4,a5,0x18
    1060:	0087df13          	srl	t5,a5,0x8
    1064:	00010fb7          	lui	t6,0x10
    1068:	f00f8f93          	add	t6,t6,-256 # ff00 <_erodata+0x6880>
    106c:	01ff7633          	and	a2,t5,t6
    1070:	00cee533          	or	a0,t4,a2
    1074:	00879893          	sll	a7,a5,0x8
    1078:	00ff0fb7          	lui	t6,0xff0
    107c:	01f8f5b3          	and	a1,a7,t6
    1080:	00b568b3          	or	a7,a0,a1
    1084:	01879393          	sll	t2,a5,0x18
    1088:	ff000fb7          	lui	t6,0xff000
    108c:	01f3f333          	and	t1,t2,t6
    1090:	0068e733          	or	a4,a7,t1
    1094:	04e12a23          	sw	a4,84(sp)
    1098:	02040593          	add	a1,s0,32
    109c:	07810513          	add	a0,sp,120
    10a0:	00400613          	li	a2,4
    10a4:	ac4ff0ef          	jal	368 <memcpy>
    10a8:	07812283          	lw	t0,120(sp)
    10ac:	0182d593          	srl	a1,t0,0x18
    10b0:	0082d693          	srl	a3,t0,0x8
    10b4:	00010fb7          	lui	t6,0x10
    10b8:	f00f8f93          	add	t6,t6,-256 # ff00 <_erodata+0x6880>
    10bc:	01f6fe33          	and	t3,a3,t6
    10c0:	01c5e833          	or	a6,a1,t3
    10c4:	00829e13          	sll	t3,t0,0x8
    10c8:	00ff0fb7          	lui	t6,0xff0
    10cc:	01fe7f33          	and	t5,t3,t6
    10d0:	01e866b3          	or	a3,a6,t5
    10d4:	01829393          	sll	t2,t0,0x18
    10d8:	ff000fb7          	lui	t6,0xff000
    10dc:	01f3f833          	and	a6,t2,t6
    10e0:	0106e633          	or	a2,a3,a6
    10e4:	04c12c23          	sw	a2,88(sp)
    10e8:	02440593          	add	a1,s0,36
    10ec:	07810513          	add	a0,sp,120
    10f0:	00400613          	li	a2,4
    10f4:	a74ff0ef          	jal	368 <memcpy>
    10f8:	07812783          	lw	a5,120(sp)
    10fc:	0187d393          	srl	t2,a5,0x18
    1100:	0087d513          	srl	a0,a5,0x8
    1104:	00010fb7          	lui	t6,0x10
    1108:	f00f8f93          	add	t6,t6,-256 # ff00 <_erodata+0x6880>
    110c:	01f575b3          	and	a1,a0,t6
    1110:	00b3e733          	or	a4,t2,a1
    1114:	00879813          	sll	a6,a5,0x8
    1118:	00ff0fb7          	lui	t6,0xff0
    111c:	01f876b3          	and	a3,a6,t6
    1120:	00d76733          	or	a4,a4,a3
    1124:	01879293          	sll	t0,a5,0x18
    1128:	ff000fb7          	lui	t6,0xff000
    112c:	01f2f833          	and	a6,t0,t6
    1130:	01076e33          	or	t3,a4,a6
    1134:	05c12e23          	sw	t3,92(sp)
    1138:	02840593          	add	a1,s0,40
    113c:	07810513          	add	a0,sp,120
    1140:	00400613          	li	a2,4
    1144:	a24ff0ef          	jal	368 <memcpy>
    1148:	07812383          	lw	t2,120(sp)
    114c:	0183d513          	srl	a0,t2,0x18
    1150:	0083d713          	srl	a4,t2,0x8
    1154:	00010fb7          	lui	t6,0x10
    1158:	f00f8f93          	add	t6,t6,-256 # ff00 <_erodata+0x6880>
    115c:	01f77333          	and	t1,a4,t6
    1160:	00656f33          	or	t5,a0,t1
    1164:	00839513          	sll	a0,t2,0x8
    1168:	00ff0fb7          	lui	t6,0xff0
    116c:	01f578b3          	and	a7,a0,t6
    1170:	011f62b3          	or	t0,t5,a7
    1174:	01839613          	sll	a2,t2,0x18
    1178:	ff000fb7          	lui	t6,0xff000
    117c:	01f67eb3          	and	t4,a2,t6
    1180:	01d2ee33          	or	t3,t0,t4
    1184:	07c12023          	sw	t3,96(sp)
    1188:	02c40593          	add	a1,s0,44
    118c:	07810513          	add	a0,sp,120
    1190:	00400613          	li	a2,4
    1194:	9d4ff0ef          	jal	368 <memcpy>
    1198:	07812283          	lw	t0,120(sp)
    119c:	0182d813          	srl	a6,t0,0x18
    11a0:	0082d313          	srl	t1,t0,0x8
    11a4:	00010fb7          	lui	t6,0x10
    11a8:	f00f8f93          	add	t6,t6,-256 # ff00 <_erodata+0x6880>
    11ac:	01f378b3          	and	a7,t1,t6
    11b0:	011867b3          	or	a5,a6,a7
    11b4:	00829893          	sll	a7,t0,0x8
    11b8:	00ff0fb7          	lui	t6,0xff0
    11bc:	01f8ff33          	and	t5,a7,t6
    11c0:	01e7e333          	or	t1,a5,t5
    11c4:	01829613          	sll	a2,t0,0x18
    11c8:	ff000fb7          	lui	t6,0xff000
    11cc:	01f675b3          	and	a1,a2,t6
    11d0:	00b36533          	or	a0,t1,a1
    11d4:	06a12223          	sw	a0,100(sp)
    11d8:	03040593          	add	a1,s0,48
    11dc:	07810513          	add	a0,sp,120
    11e0:	00400613          	li	a2,4
    11e4:	984ff0ef          	jal	368 <memcpy>
    11e8:	07812f03          	lw	t5,120(sp)
    11ec:	018f5393          	srl	t2,t5,0x18
    11f0:	008f5813          	srl	a6,t5,0x8
    11f4:	00010fb7          	lui	t6,0x10
    11f8:	f00f8f93          	add	t6,t6,-256 # ff00 <_erodata+0x6880>
    11fc:	01f87e33          	and	t3,a6,t6
    1200:	01c3e2b3          	or	t0,t2,t3
    1204:	008f1513          	sll	a0,t5,0x8
    1208:	00ff0fb7          	lui	t6,0xff0
    120c:	01f57333          	and	t1,a0,t6
    1210:	0062e633          	or	a2,t0,t1
    1214:	018f1393          	sll	t2,t5,0x18
    1218:	ff000fb7          	lui	t6,0xff000
    121c:	01f3f7b3          	and	a5,t2,t6
    1220:	00f66833          	or	a6,a2,a5
    1224:	07012423          	sw	a6,104(sp)
    1228:	03440593          	add	a1,s0,52
    122c:	07810513          	add	a0,sp,120
    1230:	00400613          	li	a2,4
    1234:	934ff0ef          	jal	368 <memcpy>
    1238:	07812383          	lw	t2,120(sp)
    123c:	0183d313          	srl	t1,t2,0x18
    1240:	0083d713          	srl	a4,t2,0x8
    1244:	00010fb7          	lui	t6,0x10
    1248:	f00f8f93          	add	t6,t6,-256 # ff00 <_erodata+0x6880>
    124c:	01f778b3          	and	a7,a4,t6
    1250:	01136f33          	or	t5,t1,a7
    1254:	00839713          	sll	a4,t2,0x8
    1258:	00ff0fb7          	lui	t6,0xff0
    125c:	01f77833          	and	a6,a4,t6
    1260:	010f6f33          	or	t5,t5,a6
    1264:	01839593          	sll	a1,t2,0x18
    1268:	ff000fb7          	lui	t6,0xff000
    126c:	01f5f2b3          	and	t0,a1,t6
    1270:	005f6333          	or	t1,t5,t0
    1274:	06612623          	sw	t1,108(sp)
    1278:	03840593          	add	a1,s0,56
    127c:	07810513          	add	a0,sp,120
    1280:	00400613          	li	a2,4
    1284:	8e4ff0ef          	jal	368 <memcpy>
    1288:	07812883          	lw	a7,120(sp)
    128c:	0188d693          	srl	a3,a7,0x18
    1290:	0088d293          	srl	t0,a7,0x8
    1294:	00010fb7          	lui	t6,0x10
    1298:	f00f8f93          	add	t6,t6,-256 # ff00 <_erodata+0x6880>
    129c:	01f2f733          	and	a4,t0,t6
    12a0:	00e6e5b3          	or	a1,a3,a4
    12a4:	00889513          	sll	a0,a7,0x8
    12a8:	00ff0fb7          	lui	t6,0xff0
    12ac:	01f57333          	and	t1,a0,t6
    12b0:	0065e5b3          	or	a1,a1,t1
    12b4:	01889793          	sll	a5,a7,0x18
    12b8:	ff000fb7          	lui	t6,0xff000
    12bc:	01f7f333          	and	t1,a5,t6
    12c0:	0065e833          	or	a6,a1,t1
    12c4:	07012823          	sw	a6,112(sp)
    12c8:	03c40593          	add	a1,s0,60
    12cc:	07810513          	add	a0,sp,120
    12d0:	00400613          	li	a2,4
    12d4:	894ff0ef          	jal	368 <memcpy>
    12d8:	07812383          	lw	t2,120(sp)
    12dc:	0183df13          	srl	t5,t2,0x18
    12e0:	0083d813          	srl	a6,t2,0x8
    12e4:	00010fb7          	lui	t6,0x10
    12e8:	f00f8f93          	add	t6,t6,-256 # ff00 <_erodata+0x6880>
    12ec:	01f878b3          	and	a7,a6,t6
    12f0:	011f6eb3          	or	t4,t5,a7
    12f4:	00839793          	sll	a5,t2,0x8
    12f8:	00ff0fb7          	lui	t6,0xff0
    12fc:	01f7f5b3          	and	a1,a5,t6
    1300:	00bee733          	or	a4,t4,a1
    1304:	01839313          	sll	t1,t2,0x18
    1308:	ff000fb7          	lui	t6,0xff000
    130c:	01f37f33          	and	t5,t1,t6
    1310:	01e765b3          	or	a1,a4,t5
    1314:	06b12a23          	sw	a1,116(sp)
    1318:	00000393          	li	t2,0
    131c:	00000893          	li	a7,0
    1320:	00008337          	lui	t1,0x8
    1324:	d8030313          	add	t1,t1,-640 # 7d80 <k224_256>
    1328:	00439513          	sll	a0,t2,0x4
    132c:	01150533          	add	a0,a0,a7
    1330:	00251793          	sll	a5,a0,0x2
    1334:	00f30eb3          	add	t4,t1,a5
    1338:	000eaf03          	lw	t5,0(t4)
    133c:	03810713          	add	a4,sp,56
    1340:	00289593          	sll	a1,a7,0x2
    1344:	00b702b3          	add	t0,a4,a1
    1348:	0002a903          	lw	s2,0(t0)
    134c:	0004a283          	lw	t0,0(s1)
    1350:	0044ae03          	lw	t3,4(s1)
    1354:	0084a503          	lw	a0,8(s1)
    1358:	00c4a303          	lw	t1,12(s1)
    135c:	0104a683          	lw	a3,16(s1)
    1360:	0144a703          	lw	a4,20(s1)
    1364:	0184a603          	lw	a2,24(s1)
    1368:	01c4a403          	lw	s0,28(s1)
    136c:	01a69793          	sll	a5,a3,0x1a
    1370:	0066d593          	srl	a1,a3,0x6
    1374:	00b7e9b3          	or	s3,a5,a1
    1378:	01569e93          	sll	t4,a3,0x15
    137c:	00b6d593          	srl	a1,a3,0xb
    1380:	00bee5b3          	or	a1,t4,a1
    1384:	00769793          	sll	a5,a3,0x7
    1388:	0196de93          	srl	t4,a3,0x19
    138c:	01d7e833          	or	a6,a5,t4
    1390:	0105c7b3          	xor	a5,a1,a6
    1394:	00f9c5b3          	xor	a1,s3,a5
    1398:	00b405b3          	add	a1,s0,a1
    139c:	00e6f833          	and	a6,a3,a4
    13a0:	fff6c793          	not	a5,a3
    13a4:	00c7feb3          	and	t4,a5,a2
    13a8:	01d84833          	xor	a6,a6,t4
    13ac:	010587b3          	add	a5,a1,a6
    13b0:	01e787b3          	add	a5,a5,t5
    13b4:	01278433          	add	s0,a5,s2
    13b8:	01e29f13          	sll	t5,t0,0x1e
    13bc:	0022de93          	srl	t4,t0,0x2
    13c0:	01df65b3          	or	a1,t5,t4
    13c4:	01329813          	sll	a6,t0,0x13
    13c8:	00d2d793          	srl	a5,t0,0xd
    13cc:	00f867b3          	or	a5,a6,a5
    13d0:	00a29f13          	sll	t5,t0,0xa
    13d4:	0162de93          	srl	t4,t0,0x16
    13d8:	01df6eb3          	or	t4,t5,t4
    13dc:	01d7ceb3          	xor	t4,a5,t4
    13e0:	01d5c833          	xor	a6,a1,t4
    13e4:	01c2feb3          	and	t4,t0,t3
    13e8:	00a2f7b3          	and	a5,t0,a0
    13ec:	00ae7f33          	and	t5,t3,a0
    13f0:	01e7c7b3          	xor	a5,a5,t5
    13f4:	00fec5b3          	xor	a1,t4,a5
    13f8:	00b805b3          	add	a1,a6,a1
    13fc:	00b405b3          	add	a1,s0,a1
    1400:	00830eb3          	add	t4,t1,s0
    1404:	00b4a023          	sw	a1,0(s1)
    1408:	0054a223          	sw	t0,4(s1)
    140c:	01c4a423          	sw	t3,8(s1)
    1410:	00a4a623          	sw	a0,12(s1)
    1414:	01d4a823          	sw	t4,16(s1)
    1418:	00d4aa23          	sw	a3,20(s1)
    141c:	00e4ac23          	sw	a4,24(s1)
    1420:	00c4ae23          	sw	a2,28(s1)
    1424:	00188893          	add	a7,a7,1
    1428:	01000f93          	li	t6,16
    142c:	eff8eae3          	bltu	a7,t6,1320 <_stacksz+0x520>
    1430:	00300f93          	li	t6,3
    1434:	0df3f263          	bgeu	t2,t6,14f8 <_stacksz+0x6f8>
    1438:	00000313          	li	t1,0
    143c:	03810e13          	add	t3,sp,56
    1440:	00231293          	sll	t0,t1,0x2
    1444:	005e07b3          	add	a5,t3,t0
    1448:	0007a803          	lw	a6,0(a5)
    144c:	03810f13          	add	t5,sp,56
    1450:	00130293          	add	t0,t1,1
    1454:	00f2f513          	and	a0,t0,15
    1458:	00251593          	sll	a1,a0,0x2
    145c:	00bf08b3          	add	a7,t5,a1
    1460:	0008ae03          	lw	t3,0(a7)
    1464:	03810e93          	add	t4,sp,56
    1468:	00930593          	add	a1,t1,9
    146c:	00f5f513          	and	a0,a1,15
    1470:	00251893          	sll	a7,a0,0x2
    1474:	011e86b3          	add	a3,t4,a7
    1478:	0006a883          	lw	a7,0(a3)
    147c:	03810613          	add	a2,sp,56
    1480:	00e30f13          	add	t5,t1,14
    1484:	00ff7e93          	and	t4,t5,15
    1488:	002e9713          	sll	a4,t4,0x2
    148c:	00e60eb3          	add	t4,a2,a4
    1490:	000ea303          	lw	t1,0(t4)
    1494:	00f31513          	sll	a0,t1,0xf
    1498:	01135e93          	srl	t4,t1,0x11
    149c:	01d56733          	or	a4,a0,t4
    14a0:	00d31e93          	sll	t4,t1,0xd
    14a4:	01335f13          	srl	t5,t1,0x13
    14a8:	01eee633          	or	a2,t4,t5
    14ac:	00a35693          	srl	a3,t1,0xa
    14b0:	00d64333          	xor	t1,a2,a3
    14b4:	006745b3          	xor	a1,a4,t1
    14b8:	019e1613          	sll	a2,t3,0x19
    14bc:	007e5513          	srl	a0,t3,0x7
    14c0:	00a66733          	or	a4,a2,a0
    14c4:	00ee1513          	sll	a0,t3,0xe
    14c8:	012e5313          	srl	t1,t3,0x12
    14cc:	00656633          	or	a2,a0,t1
    14d0:	003e5693          	srl	a3,t3,0x3
    14d4:	00d64e33          	xor	t3,a2,a3
    14d8:	01c74733          	xor	a4,a4,t3
    14dc:	011588b3          	add	a7,a1,a7
    14e0:	00e88533          	add	a0,a7,a4
    14e4:	01050733          	add	a4,a0,a6
    14e8:	00e7a023          	sw	a4,0(a5)
    14ec:	00028313          	mv	t1,t0
    14f0:	01000f93          	li	t6,16
    14f4:	f5f364e3          	bltu	t1,t6,143c <_stacksz+0x63c>
    14f8:	00138393          	add	t2,t2,1
    14fc:	00400f93          	li	t6,4
    1500:	e1f3eee3          	bltu	t2,t6,131c <_stacksz+0x51c>
    1504:	00000813          	li	a6,0
    1508:	00281693          	sll	a3,a6,0x2
    150c:	00d488b3          	add	a7,s1,a3
    1510:	0008af03          	lw	t5,0(a7)
    1514:	01810e13          	add	t3,sp,24
    1518:	00de0333          	add	t1,t3,a3
    151c:	00032283          	lw	t0,0(t1)
    1520:	005f0533          	add	a0,t5,t0
    1524:	00a8a023          	sw	a0,0(a7)
    1528:	00180813          	add	a6,a6,1
    152c:	00800f93          	li	t6,8
    1530:	fdf86ce3          	bltu	a6,t6,1508 <_stacksz+0x708>
    1534:	00812403          	lw	s0,8(sp)
    1538:	00c12483          	lw	s1,12(sp)
    153c:	01012903          	lw	s2,16(sp)
    1540:	01412983          	lw	s3,20(sp)
    1544:	00412083          	lw	ra,4(sp)
    1548:	08010113          	add	sp,sp,128
    154c:	00008067          	ret

00001550 <sha256_update_nblocks>:
    1550:	00010f13          	mv	t5,sp
    1554:	fe010113          	add	sp,sp,-32
    1558:	01e12023          	sw	t5,0(sp)
    155c:	00112223          	sw	ra,4(sp)
    1560:	00812423          	sw	s0,8(sp)
    1564:	00912623          	sw	s1,12(sp)
    1568:	01212823          	sw	s2,16(sp)
    156c:	01312a23          	sw	s3,20(sp)
    1570:	00060413          	mv	s0,a2
    1574:	00058493          	mv	s1,a1
    1578:	00655913          	srl	s2,a0,0x6
    157c:	00000993          	li	s3,0
    1580:	0129fe63          	bgeu	s3,s2,159c <sha256_update_nblocks+0x4c>
    1584:	00699393          	sll	t2,s3,0x6
    1588:	00748533          	add	a0,s1,t2
    158c:	00040593          	mv	a1,s0
    1590:	f90ff0ef          	jal	d20 <sha256_update>
    1594:	00198993          	add	s3,s3,1
    1598:	fe9ff06f          	j	1580 <sha256_update_nblocks+0x30>
    159c:	00812403          	lw	s0,8(sp)
    15a0:	00c12483          	lw	s1,12(sp)
    15a4:	01012903          	lw	s2,16(sp)
    15a8:	01412983          	lw	s3,20(sp)
    15ac:	00412083          	lw	ra,4(sp)
    15b0:	02010113          	add	sp,sp,32
    15b4:	00008067          	ret

000015b8 <sha256_update_last>:
    15b8:	00010f13          	mv	t5,sp
    15bc:	f5010113          	add	sp,sp,-176
    15c0:	01e12023          	sw	t5,0(sp)
    15c4:	00112223          	sw	ra,4(sp)
    15c8:	00812423          	sw	s0,8(sp)
    15cc:	00912623          	sw	s1,12(sp)
    15d0:	01212823          	sw	s2,16(sp)
    15d4:	01312a23          	sw	s3,20(sp)
    15d8:	01412c23          	sw	s4,24(sp)
    15dc:	00070413          	mv	s0,a4
    15e0:	00068a13          	mv	s4,a3
    15e4:	00060493          	mv	s1,a2
    15e8:	00948f13          	add	t5,s1,9
    15ec:	04000f93          	li	t6,64
    15f0:	01eff663          	bgeu	t6,t5,15fc <sha256_update_last+0x44>
    15f4:	00200993          	li	s3,2
    15f8:	0080006f          	j	1600 <sha256_update_last+0x48>
    15fc:	00100993          	li	s3,1
    1600:	00699913          	sll	s2,s3,0x6
    1604:	00000293          	li	t0,0
    1608:	02510423          	sb	t0,40(sp)
    160c:	00000893          	li	a7,0
    1610:	031104a3          	sb	a7,41(sp)
    1614:	00000613          	li	a2,0
    1618:	02c10523          	sb	a2,42(sp)
    161c:	00000893          	li	a7,0
    1620:	031105a3          	sb	a7,43(sp)
    1624:	00000393          	li	t2,0
    1628:	02710623          	sb	t2,44(sp)
    162c:	00000e13          	li	t3,0
    1630:	03c106a3          	sb	t3,45(sp)
    1634:	00000e13          	li	t3,0
    1638:	03c10723          	sb	t3,46(sp)
    163c:	00000313          	li	t1,0
    1640:	026107a3          	sb	t1,47(sp)
    1644:	00000313          	li	t1,0
    1648:	02610823          	sb	t1,48(sp)
    164c:	00000893          	li	a7,0
    1650:	031108a3          	sb	a7,49(sp)
    1654:	00000813          	li	a6,0
    1658:	03010923          	sb	a6,50(sp)
    165c:	00000713          	li	a4,0
    1660:	02e109a3          	sb	a4,51(sp)
    1664:	00000393          	li	t2,0
    1668:	02710a23          	sb	t2,52(sp)
    166c:	00000793          	li	a5,0
    1670:	02f10aa3          	sb	a5,53(sp)
    1674:	00000613          	li	a2,0
    1678:	02c10b23          	sb	a2,54(sp)
    167c:	00000613          	li	a2,0
    1680:	02c10ba3          	sb	a2,55(sp)
    1684:	00000e93          	li	t4,0
    1688:	03d10c23          	sb	t4,56(sp)
    168c:	00000e13          	li	t3,0
    1690:	03c10ca3          	sb	t3,57(sp)
    1694:	00000293          	li	t0,0
    1698:	02510d23          	sb	t0,58(sp)
    169c:	00000393          	li	t2,0
    16a0:	02710da3          	sb	t2,59(sp)
    16a4:	00000813          	li	a6,0
    16a8:	03010e23          	sb	a6,60(sp)
    16ac:	00000713          	li	a4,0
    16b0:	02e10ea3          	sb	a4,61(sp)
    16b4:	00000613          	li	a2,0
    16b8:	02c10f23          	sb	a2,62(sp)
    16bc:	00000613          	li	a2,0
    16c0:	02c10fa3          	sb	a2,63(sp)
    16c4:	00000e13          	li	t3,0
    16c8:	05c10023          	sb	t3,64(sp)
    16cc:	00000813          	li	a6,0
    16d0:	050100a3          	sb	a6,65(sp)
    16d4:	00000713          	li	a4,0
    16d8:	04e10123          	sb	a4,66(sp)
    16dc:	00000293          	li	t0,0
    16e0:	045101a3          	sb	t0,67(sp)
    16e4:	00000313          	li	t1,0
    16e8:	04610223          	sb	t1,68(sp)
    16ec:	00000393          	li	t2,0
    16f0:	047102a3          	sb	t2,69(sp)
    16f4:	00000613          	li	a2,0
    16f8:	04c10323          	sb	a2,70(sp)
    16fc:	00000693          	li	a3,0
    1700:	04d103a3          	sb	a3,71(sp)
    1704:	00000f13          	li	t5,0
    1708:	05e10423          	sb	t5,72(sp)
    170c:	00000e13          	li	t3,0
    1710:	05c104a3          	sb	t3,73(sp)
    1714:	00000f13          	li	t5,0
    1718:	05e10523          	sb	t5,74(sp)
    171c:	00000893          	li	a7,0
    1720:	051105a3          	sb	a7,75(sp)
    1724:	00000293          	li	t0,0
    1728:	04510623          	sb	t0,76(sp)
    172c:	00000793          	li	a5,0
    1730:	04f106a3          	sb	a5,77(sp)
    1734:	00000e13          	li	t3,0
    1738:	05c10723          	sb	t3,78(sp)
    173c:	00000293          	li	t0,0
    1740:	045107a3          	sb	t0,79(sp)
    1744:	00000693          	li	a3,0
    1748:	04d10823          	sb	a3,80(sp)
    174c:	00000e93          	li	t4,0
    1750:	05d108a3          	sb	t4,81(sp)
    1754:	00000e93          	li	t4,0
    1758:	05d10923          	sb	t4,82(sp)
    175c:	00000793          	li	a5,0
    1760:	04f109a3          	sb	a5,83(sp)
    1764:	00000793          	li	a5,0
    1768:	04f10a23          	sb	a5,84(sp)
    176c:	00000713          	li	a4,0
    1770:	04e10aa3          	sb	a4,85(sp)
    1774:	00000713          	li	a4,0
    1778:	04e10b23          	sb	a4,86(sp)
    177c:	00000e13          	li	t3,0
    1780:	05c10ba3          	sb	t3,87(sp)
    1784:	00000613          	li	a2,0
    1788:	04c10c23          	sb	a2,88(sp)
    178c:	00000793          	li	a5,0
    1790:	04f10ca3          	sb	a5,89(sp)
    1794:	00000793          	li	a5,0
    1798:	04f10d23          	sb	a5,90(sp)
    179c:	00000613          	li	a2,0
    17a0:	04c10da3          	sb	a2,91(sp)
    17a4:	00000813          	li	a6,0
    17a8:	05010e23          	sb	a6,92(sp)
    17ac:	00000293          	li	t0,0
    17b0:	04510ea3          	sb	t0,93(sp)
    17b4:	00000713          	li	a4,0
    17b8:	04e10f23          	sb	a4,94(sp)
    17bc:	00000393          	li	t2,0
    17c0:	04710fa3          	sb	t2,95(sp)
    17c4:	00000893          	li	a7,0
    17c8:	07110023          	sb	a7,96(sp)
    17cc:	00000393          	li	t2,0
    17d0:	067100a3          	sb	t2,97(sp)
    17d4:	00000293          	li	t0,0
    17d8:	06510123          	sb	t0,98(sp)
    17dc:	00000613          	li	a2,0
    17e0:	06c101a3          	sb	a2,99(sp)
    17e4:	00000393          	li	t2,0
    17e8:	06710223          	sb	t2,100(sp)
    17ec:	00000613          	li	a2,0
    17f0:	06c102a3          	sb	a2,101(sp)
    17f4:	00000613          	li	a2,0
    17f8:	06c10323          	sb	a2,102(sp)
    17fc:	00000613          	li	a2,0
    1800:	06c103a3          	sb	a2,103(sp)
    1804:	00000e93          	li	t4,0
    1808:	07d10423          	sb	t4,104(sp)
    180c:	00000e93          	li	t4,0
    1810:	07d104a3          	sb	t4,105(sp)
    1814:	00000293          	li	t0,0
    1818:	06510523          	sb	t0,106(sp)
    181c:	00000f13          	li	t5,0
    1820:	07e105a3          	sb	t5,107(sp)
    1824:	00000893          	li	a7,0
    1828:	07110623          	sb	a7,108(sp)
    182c:	00000e13          	li	t3,0
    1830:	07c106a3          	sb	t3,109(sp)
    1834:	00000813          	li	a6,0
    1838:	07010723          	sb	a6,110(sp)
    183c:	00000693          	li	a3,0
    1840:	06d107a3          	sb	a3,111(sp)
    1844:	00000793          	li	a5,0
    1848:	06f10823          	sb	a5,112(sp)
    184c:	00000313          	li	t1,0
    1850:	066108a3          	sb	t1,113(sp)
    1854:	00000e93          	li	t4,0
    1858:	07d10923          	sb	t4,114(sp)
    185c:	00000313          	li	t1,0
    1860:	066109a3          	sb	t1,115(sp)
    1864:	00000313          	li	t1,0
    1868:	06610a23          	sb	t1,116(sp)
    186c:	00000613          	li	a2,0
    1870:	06c10aa3          	sb	a2,117(sp)
    1874:	00000293          	li	t0,0
    1878:	06510b23          	sb	t0,118(sp)
    187c:	00000e93          	li	t4,0
    1880:	07d10ba3          	sb	t4,119(sp)
    1884:	00000813          	li	a6,0
    1888:	07010c23          	sb	a6,120(sp)
    188c:	00000693          	li	a3,0
    1890:	06d10ca3          	sb	a3,121(sp)
    1894:	00000613          	li	a2,0
    1898:	06c10d23          	sb	a2,122(sp)
    189c:	00000e13          	li	t3,0
    18a0:	07c10da3          	sb	t3,123(sp)
    18a4:	00000613          	li	a2,0
    18a8:	06c10e23          	sb	a2,124(sp)
    18ac:	00000793          	li	a5,0
    18b0:	06f10ea3          	sb	a5,125(sp)
    18b4:	00000713          	li	a4,0
    18b8:	06e10f23          	sb	a4,126(sp)
    18bc:	00000713          	li	a4,0
    18c0:	06e10fa3          	sb	a4,127(sp)
    18c4:	00000313          	li	t1,0
    18c8:	08610023          	sb	t1,128(sp)
    18cc:	00000613          	li	a2,0
    18d0:	08c100a3          	sb	a2,129(sp)
    18d4:	00000693          	li	a3,0
    18d8:	08d10123          	sb	a3,130(sp)
    18dc:	00000e93          	li	t4,0
    18e0:	09d101a3          	sb	t4,131(sp)
    18e4:	00000613          	li	a2,0
    18e8:	08c10223          	sb	a2,132(sp)
    18ec:	00000693          	li	a3,0
    18f0:	08d102a3          	sb	a3,133(sp)
    18f4:	00000e93          	li	t4,0
    18f8:	09d10323          	sb	t4,134(sp)
    18fc:	00000613          	li	a2,0
    1900:	08c103a3          	sb	a2,135(sp)
    1904:	00000e13          	li	t3,0
    1908:	09c10423          	sb	t3,136(sp)
    190c:	00000613          	li	a2,0
    1910:	08c104a3          	sb	a2,137(sp)
    1914:	00000393          	li	t2,0
    1918:	08710523          	sb	t2,138(sp)
    191c:	00000613          	li	a2,0
    1920:	08c105a3          	sb	a2,139(sp)
    1924:	00000813          	li	a6,0
    1928:	09010623          	sb	a6,140(sp)
    192c:	00000613          	li	a2,0
    1930:	08c106a3          	sb	a2,141(sp)
    1934:	00000693          	li	a3,0
    1938:	08d10723          	sb	a3,142(sp)
    193c:	00000613          	li	a2,0
    1940:	08c107a3          	sb	a2,143(sp)
    1944:	00000893          	li	a7,0
    1948:	09110823          	sb	a7,144(sp)
    194c:	00000e13          	li	t3,0
    1950:	09c108a3          	sb	t3,145(sp)
    1954:	00000613          	li	a2,0
    1958:	08c10923          	sb	a2,146(sp)
    195c:	00000613          	li	a2,0
    1960:	08c109a3          	sb	a2,147(sp)
    1964:	00000293          	li	t0,0
    1968:	08510a23          	sb	t0,148(sp)
    196c:	00000613          	li	a2,0
    1970:	08c10aa3          	sb	a2,149(sp)
    1974:	00000313          	li	t1,0
    1978:	08610b23          	sb	t1,150(sp)
    197c:	00000693          	li	a3,0
    1980:	08d10ba3          	sb	a3,151(sp)
    1984:	00000693          	li	a3,0
    1988:	08d10c23          	sb	a3,152(sp)
    198c:	00000393          	li	t2,0
    1990:	08710ca3          	sb	t2,153(sp)
    1994:	00000713          	li	a4,0
    1998:	08e10d23          	sb	a4,154(sp)
    199c:	00000e13          	li	t3,0
    19a0:	09c10da3          	sb	t3,155(sp)
    19a4:	00000613          	li	a2,0
    19a8:	08c10e23          	sb	a2,156(sp)
    19ac:	00000693          	li	a3,0
    19b0:	08d10ea3          	sb	a3,157(sp)
    19b4:	00000613          	li	a2,0
    19b8:	08c10f23          	sb	a2,158(sp)
    19bc:	00000613          	li	a2,0
    19c0:	08c10fa3          	sb	a2,159(sp)
    19c4:	00000313          	li	t1,0
    19c8:	0a610023          	sb	t1,160(sp)
    19cc:	00000393          	li	t2,0
    19d0:	0a7100a3          	sb	t2,161(sp)
    19d4:	00000893          	li	a7,0
    19d8:	0b110123          	sb	a7,162(sp)
    19dc:	00000f13          	li	t5,0
    19e0:	0be101a3          	sb	t5,163(sp)
    19e4:	00000893          	li	a7,0
    19e8:	0b110223          	sb	a7,164(sp)
    19ec:	00000813          	li	a6,0
    19f0:	0b0102a3          	sb	a6,165(sp)
    19f4:	00000293          	li	t0,0
    19f8:	0a510323          	sb	t0,166(sp)
    19fc:	00000893          	li	a7,0
    1a00:	0b1103a3          	sb	a7,167(sp)
    1a04:	00000f13          	li	t5,0
    1a08:	03e10023          	sb	t5,32(sp)
    1a0c:	00000613          	li	a2,0
    1a10:	02c100a3          	sb	a2,33(sp)
    1a14:	00000393          	li	t2,0
    1a18:	02710123          	sb	t2,34(sp)
    1a1c:	00000f13          	li	t5,0
    1a20:	03e101a3          	sb	t5,35(sp)
    1a24:	00000f13          	li	t5,0
    1a28:	03e10223          	sb	t5,36(sp)
    1a2c:	00000613          	li	a2,0
    1a30:	02c102a3          	sb	a2,37(sp)
    1a34:	00000793          	li	a5,0
    1a38:	02f10323          	sb	a5,38(sp)
    1a3c:	00000313          	li	t1,0
    1a40:	026103a3          	sb	t1,39(sp)
    1a44:	00359813          	sll	a6,a1,0x3
    1a48:	01d55293          	srl	t0,a0,0x1d
    1a4c:	005865b3          	or	a1,a6,t0
    1a50:	00351393          	sll	t2,a0,0x3
    1a54:	0183d613          	srl	a2,t2,0x18
    1a58:	0083df13          	srl	t5,t2,0x8
    1a5c:	00010fb7          	lui	t6,0x10
    1a60:	f00f8f93          	add	t6,t6,-256 # ff00 <_erodata+0x6880>
    1a64:	01ff7333          	and	t1,t5,t6
    1a68:	00666f33          	or	t5,a2,t1
    1a6c:	00839813          	sll	a6,t2,0x8
    1a70:	00ff0fb7          	lui	t6,0xff0
    1a74:	01f87533          	and	a0,a6,t6
    1a78:	00af66b3          	or	a3,t5,a0
    1a7c:	01839e93          	sll	t4,t2,0x18
    1a80:	ff000fb7          	lui	t6,0xff000
    1a84:	01fefeb3          	and	t4,t4,t6
    1a88:	01d6e333          	or	t1,a3,t4
    1a8c:	0185d613          	srl	a2,a1,0x18
    1a90:	0085d713          	srl	a4,a1,0x8
    1a94:	00010fb7          	lui	t6,0x10
    1a98:	f00f8f93          	add	t6,t6,-256 # ff00 <_erodata+0x6880>
    1a9c:	01f777b3          	and	a5,a4,t6
    1aa0:	00f667b3          	or	a5,a2,a5
    1aa4:	00859f13          	sll	t5,a1,0x8
    1aa8:	00ff0fb7          	lui	t6,0xff0
    1aac:	01ff7833          	and	a6,t5,t6
    1ab0:	0107e8b3          	or	a7,a5,a6
    1ab4:	01859513          	sll	a0,a1,0x18
    1ab8:	ff000fb7          	lui	t6,0xff000
    1abc:	01f576b3          	and	a3,a0,t6
    1ac0:	00d8e2b3          	or	t0,a7,a3
    1ac4:	02010513          	add	a0,sp,32
    1ac8:	0a512423          	sw	t0,168(sp)
    1acc:	0a612623          	sw	t1,172(sp)
    1ad0:	0a810593          	add	a1,sp,168
    1ad4:	00800613          	li	a2,8
    1ad8:	891fe0ef          	jal	368 <memcpy>
    1adc:	000a0593          	mv	a1,s4
    1ae0:	02810513          	add	a0,sp,40
    1ae4:	00048613          	mv	a2,s1
    1ae8:	881fe0ef          	jal	368 <memcpy>
    1aec:	02810793          	add	a5,sp,40
    1af0:	00978333          	add	t1,a5,s1
    1af4:	08000813          	li	a6,128
    1af8:	01030023          	sb	a6,0(t1)
    1afc:	02810e93          	add	t4,sp,40
    1b00:	012e8733          	add	a4,t4,s2
    1b04:	ff870513          	add	a0,a4,-8
    1b08:	02010593          	add	a1,sp,32
    1b0c:	00800613          	li	a2,8
    1b10:	859fe0ef          	jal	368 <memcpy>
    1b14:	02810513          	add	a0,sp,40
    1b18:	06810493          	add	s1,sp,104
    1b1c:	00040593          	mv	a1,s0
    1b20:	a00ff0ef          	jal	d20 <sha256_update>
    1b24:	00100f93          	li	t6,1
    1b28:	013ff863          	bgeu	t6,s3,1b38 <sha256_update_last+0x580>
    1b2c:	00040593          	mv	a1,s0
    1b30:	00048513          	mv	a0,s1
    1b34:	9ecff0ef          	jal	d20 <sha256_update>
    1b38:	00812403          	lw	s0,8(sp)
    1b3c:	00c12483          	lw	s1,12(sp)
    1b40:	01012903          	lw	s2,16(sp)
    1b44:	01412983          	lw	s3,20(sp)
    1b48:	01812a03          	lw	s4,24(sp)
    1b4c:	00412083          	lw	ra,4(sp)
    1b50:	0b010113          	add	sp,sp,176
    1b54:	00008067          	ret

00001b58 <sha256_finish>:
    1b58:	00010f13          	mv	t5,sp
    1b5c:	fc010113          	add	sp,sp,-64
    1b60:	01e12023          	sw	t5,0(sp)
    1b64:	00112223          	sw	ra,4(sp)
    1b68:	00812423          	sw	s0,8(sp)
    1b6c:	00912623          	sw	s1,12(sp)
    1b70:	01212823          	sw	s2,16(sp)
    1b74:	00058413          	mv	s0,a1
    1b78:	00050493          	mv	s1,a0
    1b7c:	00000393          	li	t2,0
    1b80:	00710c23          	sb	t2,24(sp)
    1b84:	00000e93          	li	t4,0
    1b88:	01d10ca3          	sb	t4,25(sp)
    1b8c:	00000713          	li	a4,0
    1b90:	00e10d23          	sb	a4,26(sp)
    1b94:	00000713          	li	a4,0
    1b98:	00e10da3          	sb	a4,27(sp)
    1b9c:	00000613          	li	a2,0
    1ba0:	00c10e23          	sb	a2,28(sp)
    1ba4:	00000e13          	li	t3,0
    1ba8:	01c10ea3          	sb	t3,29(sp)
    1bac:	00000313          	li	t1,0
    1bb0:	00610f23          	sb	t1,30(sp)
    1bb4:	00000693          	li	a3,0
    1bb8:	00d10fa3          	sb	a3,31(sp)
    1bbc:	00000293          	li	t0,0
    1bc0:	02510023          	sb	t0,32(sp)
    1bc4:	00000293          	li	t0,0
    1bc8:	025100a3          	sb	t0,33(sp)
    1bcc:	00000813          	li	a6,0
    1bd0:	03010123          	sb	a6,34(sp)
    1bd4:	00000693          	li	a3,0
    1bd8:	02d101a3          	sb	a3,35(sp)
    1bdc:	00000793          	li	a5,0
    1be0:	02f10223          	sb	a5,36(sp)
    1be4:	00000513          	li	a0,0
    1be8:	02a102a3          	sb	a0,37(sp)
    1bec:	00000f13          	li	t5,0
    1bf0:	03e10323          	sb	t5,38(sp)
    1bf4:	00000593          	li	a1,0
    1bf8:	02b103a3          	sb	a1,39(sp)
    1bfc:	00000613          	li	a2,0
    1c00:	02c10423          	sb	a2,40(sp)
    1c04:	00000e13          	li	t3,0
    1c08:	03c104a3          	sb	t3,41(sp)
    1c0c:	00000893          	li	a7,0
    1c10:	03110523          	sb	a7,42(sp)
    1c14:	00000393          	li	t2,0
    1c18:	027105a3          	sb	t2,43(sp)
    1c1c:	00000f13          	li	t5,0
    1c20:	03e10623          	sb	t5,44(sp)
    1c24:	00000293          	li	t0,0
    1c28:	025106a3          	sb	t0,45(sp)
    1c2c:	00000813          	li	a6,0
    1c30:	03010723          	sb	a6,46(sp)
    1c34:	00000793          	li	a5,0
    1c38:	02f107a3          	sb	a5,47(sp)
    1c3c:	00000713          	li	a4,0
    1c40:	02e10823          	sb	a4,48(sp)
    1c44:	00000613          	li	a2,0
    1c48:	02c108a3          	sb	a2,49(sp)
    1c4c:	00000593          	li	a1,0
    1c50:	02b10923          	sb	a1,50(sp)
    1c54:	00000e13          	li	t3,0
    1c58:	03c109a3          	sb	t3,51(sp)
    1c5c:	00000613          	li	a2,0
    1c60:	02c10a23          	sb	a2,52(sp)
    1c64:	00000893          	li	a7,0
    1c68:	03110aa3          	sb	a7,53(sp)
    1c6c:	00000f13          	li	t5,0
    1c70:	03e10b23          	sb	t5,54(sp)
    1c74:	00000893          	li	a7,0
    1c78:	03110ba3          	sb	a7,55(sp)
    1c7c:	00000913          	li	s2,0
    1c80:	00291513          	sll	a0,s2,0x2
    1c84:	00a48333          	add	t1,s1,a0
    1c88:	00032283          	lw	t0,0(t1)
    1c8c:	0182d393          	srl	t2,t0,0x18
    1c90:	0082de93          	srl	t4,t0,0x8
    1c94:	00010fb7          	lui	t6,0x10
    1c98:	f00f8f93          	add	t6,t6,-256 # ff00 <_erodata+0x6880>
    1c9c:	01fefeb3          	and	t4,t4,t6
    1ca0:	01d3e833          	or	a6,t2,t4
    1ca4:	00829593          	sll	a1,t0,0x8
    1ca8:	00ff0fb7          	lui	t6,0xff0
    1cac:	01f5f333          	and	t1,a1,t6
    1cb0:	006867b3          	or	a5,a6,t1
    1cb4:	01829593          	sll	a1,t0,0x18
    1cb8:	ff000fb7          	lui	t6,0xff000
    1cbc:	01f5f5b3          	and	a1,a1,t6
    1cc0:	00b7e333          	or	t1,a5,a1
    1cc4:	01810393          	add	t2,sp,24
    1cc8:	00a38533          	add	a0,t2,a0
    1ccc:	02612c23          	sw	t1,56(sp)
    1cd0:	03810593          	add	a1,sp,56
    1cd4:	00400613          	li	a2,4
    1cd8:	e90fe0ef          	jal	368 <memcpy>
    1cdc:	00190913          	add	s2,s2,1
    1ce0:	00800f93          	li	t6,8
    1ce4:	f9f96ee3          	bltu	s2,t6,1c80 <sha256_finish+0x128>
    1ce8:	01810593          	add	a1,sp,24
    1cec:	02000613          	li	a2,32
    1cf0:	00040513          	mv	a0,s0
    1cf4:	e74fe0ef          	jal	368 <memcpy>
    1cf8:	00812403          	lw	s0,8(sp)
    1cfc:	00c12483          	lw	s1,12(sp)
    1d00:	01012903          	lw	s2,16(sp)
    1d04:	00412083          	lw	ra,4(sp)
    1d08:	04010113          	add	sp,sp,64
    1d0c:	00008067          	ret

00001d10 <mul_wide_add2_u64>:
    1d10:	00010f13          	mv	t5,sp
    1d14:	ed010113          	add	sp,sp,-304
    1d18:	01e12023          	sw	t5,0(sp)
    1d1c:	00112223          	sw	ra,4(sp)
    1d20:	00812423          	sw	s0,8(sp)
    1d24:	00912623          	sw	s1,12(sp)
    1d28:	01212823          	sw	s2,16(sp)
    1d2c:	01312a23          	sw	s3,20(sp)
    1d30:	01412c23          	sw	s4,24(sp)
    1d34:	01512e23          	sw	s5,28(sp)
    1d38:	03612023          	sw	s6,32(sp)
    1d3c:	03712223          	sw	s7,36(sp)
    1d40:	03812423          	sw	s8,40(sp)
    1d44:	03912623          	sw	s9,44(sp)
    1d48:	03a12823          	sw	s10,48(sp)
    1d4c:	03b12a23          	sw	s11,52(sp)
    1d50:	00080c93          	mv	s9,a6
    1d54:	00078a93          	mv	s5,a5
    1d58:	00070d13          	mv	s10,a4
    1d5c:	04b12823          	sw	a1,80(sp)
    1d60:	02a12c23          	sw	a0,56(sp)
    1d64:	000cad83          	lw	s11,0(s9)
    1d68:	004cab03          	lw	s6,4(s9)
    1d6c:	06d12023          	sw	a3,96(sp)
    1d70:	04c12423          	sw	a2,72(sp)
    1d74:	07810893          	add	a7,sp,120
    1d78:	07112223          	sw	a7,100(sp)
    1d7c:	03812483          	lw	s1,56(sp)
    1d80:	00000913          	li	s2,0
    1d84:	04812403          	lw	s0,72(sp)
    1d88:	00000c13          	li	s8,0
    1d8c:	00090a13          	mv	s4,s2
    1d90:	00048993          	mv	s3,s1
    1d94:	03812e23          	sw	s8,60(sp)
    1d98:	00040b93          	mv	s7,s0
    1d9c:	20001fb7          	lui	t6,0x20001
    1da0:	e08fa603          	lw	a2,-504(t6) # 20000e08 <FStar_UInt128_u32_32>
    1da4:	05012583          	lw	a1,80(sp)
    1da8:	03812503          	lw	a0,56(sp)
    1dac:	f8cfe0ef          	jal	538 <i64_shr>
    1db0:	02850e33          	mul	t3,a0,s0
    1db4:	02853eb3          	mulhu	t4,a0,s0
    1db8:	038502b3          	mul	t0,a0,s8
    1dbc:	005e8333          	add	t1,t4,t0
    1dc0:	02858eb3          	mul	t4,a1,s0
    1dc4:	01d30c33          	add	s8,t1,t4
    1dc8:	000e0413          	mv	s0,t3
    1dcc:	03798533          	mul	a0,s3,s7
    1dd0:	0379beb3          	mulhu	t4,s3,s7
    1dd4:	03c12803          	lw	a6,60(sp)
    1dd8:	030987b3          	mul	a5,s3,a6
    1ddc:	00fe86b3          	add	a3,t4,a5
    1de0:	037a0733          	mul	a4,s4,s7
    1de4:	00e685b3          	add	a1,a3,a4
    1de8:	20001fb7          	lui	t6,0x20001
    1dec:	e08fa603          	lw	a2,-504(t6) # 20000e08 <FStar_UInt128_u32_32>
    1df0:	f48fe0ef          	jal	538 <i64_shr>
    1df4:	00a409b3          	add	s3,s0,a0
    1df8:	00a9b0b3          	sltu	ra,s3,a0
    1dfc:	00bc0eb3          	add	t4,s8,a1
    1e00:	001e8eb3          	add	t4,t4,ra
    1e04:	00000413          	li	s0,0
    1e08:	03812683          	lw	a3,56(sp)
    1e0c:	04812e03          	lw	t3,72(sp)
    1e10:	03c68a33          	mul	s4,a3,t3
    1e14:	03c6b633          	mulhu	a2,a3,t3
    1e18:	00000b93          	li	s7,0
    1e1c:	20001fb7          	lui	t6,0x20001
    1e20:	e08fa603          	lw	a2,-504(t6) # 20000e08 <FStar_UInt128_u32_32>
    1e24:	06012583          	lw	a1,96(sp)
    1e28:	04812503          	lw	a0,72(sp)
    1e2c:	f0cfe0ef          	jal	538 <i64_shr>
    1e30:	02a488b3          	mul	a7,s1,a0
    1e34:	02a4b733          	mulhu	a4,s1,a0
    1e38:	02b48e33          	mul	t3,s1,a1
    1e3c:	01c707b3          	add	a5,a4,t3
    1e40:	02a90f33          	mul	t5,s2,a0
    1e44:	01e78e33          	add	t3,a5,t5
    1e48:	01388533          	add	a0,a7,s3
    1e4c:	013530b3          	sltu	ra,a0,s3
    1e50:	008e05b3          	add	a1,t3,s0
    1e54:	001585b3          	add	a1,a1,ra
    1e58:	20001fb7          	lui	t6,0x20001
    1e5c:	e08fa603          	lw	a2,-504(t6) # 20000e08 <FStar_UInt128_u32_32>
    1e60:	e80fe0ef          	jal	4e0 <i64_shl>
    1e64:	00aa0633          	add	a2,s4,a0
    1e68:	00a630b3          	sltu	ra,a2,a0
    1e6c:	00bb86b3          	add	a3,s7,a1
    1e70:	001686b3          	add	a3,a3,ra
    1e74:	0cc12c23          	sw	a2,216(sp)
    1e78:	0cd12e23          	sw	a3,220(sp)
    1e7c:	04812483          	lw	s1,72(sp)
    1e80:	00000913          	li	s2,0
    1e84:	03812983          	lw	s3,56(sp)
    1e88:	00000a13          	li	s4,0
    1e8c:	05212623          	sw	s2,76(sp)
    1e90:	00048b93          	mv	s7,s1
    1e94:	05412023          	sw	s4,64(sp)
    1e98:	00098c13          	mv	s8,s3
    1e9c:	04c12683          	lw	a3,76(sp)
    1ea0:	02d12e23          	sw	a3,60(sp)
    1ea4:	05712223          	sw	s7,68(sp)
    1ea8:	04012e83          	lw	t4,64(sp)
    1eac:	05d12e23          	sw	t4,92(sp)
    1eb0:	000c0413          	mv	s0,s8
    1eb4:	03c12603          	lw	a2,60(sp)
    1eb8:	04c12c23          	sw	a2,88(sp)
    1ebc:	04412883          	lw	a7,68(sp)
    1ec0:	05112a23          	sw	a7,84(sp)
    1ec4:	20001fb7          	lui	t6,0x20001
    1ec8:	e08fa603          	lw	a2,-504(t6) # 20000e08 <FStar_UInt128_u32_32>
    1ecc:	05012583          	lw	a1,80(sp)
    1ed0:	03812503          	lw	a0,56(sp)
    1ed4:	e64fe0ef          	jal	538 <i64_shr>
    1ed8:	04412683          	lw	a3,68(sp)
    1edc:	00068613          	mv	a2,a3
    1ee0:	02c502b3          	mul	t0,a0,a2
    1ee4:	02c533b3          	mulhu	t2,a0,a2
    1ee8:	03c12683          	lw	a3,60(sp)
    1eec:	02d50733          	mul	a4,a0,a3
    1ef0:	00e38333          	add	t1,t2,a4
    1ef4:	02c586b3          	mul	a3,a1,a2
    1ef8:	00d30533          	add	a0,t1,a3
    1efc:	02512e23          	sw	t0,60(sp)
    1f00:	04a12223          	sw	a0,68(sp)
    1f04:	05c12603          	lw	a2,92(sp)
    1f08:	05812503          	lw	a0,88(sp)
    1f0c:	05412583          	lw	a1,84(sp)
    1f10:	02b406b3          	mul	a3,s0,a1
    1f14:	02b433b3          	mulhu	t2,s0,a1
    1f18:	02a40e33          	mul	t3,s0,a0
    1f1c:	01c388b3          	add	a7,t2,t3
    1f20:	02b60e33          	mul	t3,a2,a1
    1f24:	01c885b3          	add	a1,a7,t3
    1f28:	00068513          	mv	a0,a3
    1f2c:	20001fb7          	lui	t6,0x20001
    1f30:	e08fa603          	lw	a2,-504(t6) # 20000e08 <FStar_UInt128_u32_32>
    1f34:	e04fe0ef          	jal	538 <i64_shr>
    1f38:	04412f03          	lw	t5,68(sp)
    1f3c:	03c12703          	lw	a4,60(sp)
    1f40:	00a70433          	add	s0,a4,a0
    1f44:	00a430b3          	sltu	ra,s0,a0
    1f48:	00bf07b3          	add	a5,t5,a1
    1f4c:	001787b3          	add	a5,a5,ra
    1f50:	00000393          	li	t2,0
    1f54:	02712e23          	sw	t2,60(sp)
    1f58:	20001fb7          	lui	t6,0x20001
    1f5c:	e08fa603          	lw	a2,-504(t6) # 20000e08 <FStar_UInt128_u32_32>
    1f60:	05012583          	lw	a1,80(sp)
    1f64:	03812503          	lw	a0,56(sp)
    1f68:	dd0fe0ef          	jal	538 <i64_shr>
    1f6c:	04b12a23          	sw	a1,84(sp)
    1f70:	04a12223          	sw	a0,68(sp)
    1f74:	20001fb7          	lui	t6,0x20001
    1f78:	e08fa603          	lw	a2,-504(t6) # 20000e08 <FStar_UInt128_u32_32>
    1f7c:	06012583          	lw	a1,96(sp)
    1f80:	04812503          	lw	a0,72(sp)
    1f84:	db4fe0ef          	jal	538 <i64_shr>
    1f88:	04412383          	lw	t2,68(sp)
    1f8c:	02a382b3          	mul	t0,t2,a0
    1f90:	02a3b733          	mulhu	a4,t2,a0
    1f94:	02b387b3          	mul	a5,t2,a1
    1f98:	00f70733          	add	a4,a4,a5
    1f9c:	05412583          	lw	a1,84(sp)
    1fa0:	02a583b3          	mul	t2,a1,a0
    1fa4:	007707b3          	add	a5,a4,t2
    1fa8:	04512223          	sw	t0,68(sp)
    1fac:	04f12a23          	sw	a5,84(sp)
    1fb0:	20001fb7          	lui	t6,0x20001
    1fb4:	e08fa603          	lw	a2,-504(t6) # 20000e08 <FStar_UInt128_u32_32>
    1fb8:	05012583          	lw	a1,80(sp)
    1fbc:	03812503          	lw	a0,56(sp)
    1fc0:	d78fe0ef          	jal	538 <i64_shr>
    1fc4:	02950f33          	mul	t5,a0,s1
    1fc8:	02953833          	mulhu	a6,a0,s1
    1fcc:	03250333          	mul	t1,a0,s2
    1fd0:	006807b3          	add	a5,a6,t1
    1fd4:	02958e33          	mul	t3,a1,s1
    1fd8:	01c78933          	add	s2,a5,t3
    1fdc:	000f0493          	mv	s1,t5
    1fe0:	04c12e83          	lw	t4,76(sp)
    1fe4:	03798533          	mul	a0,s3,s7
    1fe8:	0379b5b3          	mulhu	a1,s3,s7
    1fec:	03d983b3          	mul	t2,s3,t4
    1ff0:	007588b3          	add	a7,a1,t2
    1ff4:	037a0f33          	mul	t5,s4,s7
    1ff8:	01e885b3          	add	a1,a7,t5
    1ffc:	20001fb7          	lui	t6,0x20001
    2000:	e08fa603          	lw	a2,-504(t6) # 20000e08 <FStar_UInt128_u32_32>
    2004:	d34fe0ef          	jal	538 <i64_shr>
    2008:	00a48fb3          	add	t6,s1,a0
    200c:	00afb0b3          	sltu	ra,t6,a0
    2010:	00b905b3          	add	a1,s2,a1
    2014:	001585b3          	add	a1,a1,ra
    2018:	000f8513          	mv	a0,t6
    201c:	20001fb7          	lui	t6,0x20001
    2020:	e08fa603          	lw	a2,-504(t6) # 20000e08 <FStar_UInt128_u32_32>
    2024:	d14fe0ef          	jal	538 <i64_shr>
    2028:	05412303          	lw	t1,84(sp)
    202c:	04412783          	lw	a5,68(sp)
    2030:	00a784b3          	add	s1,a5,a0
    2034:	00a4b0b3          	sltu	ra,s1,a0
    2038:	00b30933          	add	s2,t1,a1
    203c:	00190933          	add	s2,s2,ra
    2040:	20001fb7          	lui	t6,0x20001
    2044:	e08fa603          	lw	a2,-504(t6) # 20000e08 <FStar_UInt128_u32_32>
    2048:	06012583          	lw	a1,96(sp)
    204c:	04812503          	lw	a0,72(sp)
    2050:	ce8fe0ef          	jal	538 <i64_shr>
    2054:	02ac07b3          	mul	a5,s8,a0
    2058:	02ac3f33          	mulhu	t5,s8,a0
    205c:	02bc02b3          	mul	t0,s8,a1
    2060:	005f0333          	add	t1,t5,t0
    2064:	04012803          	lw	a6,64(sp)
    2068:	02a80533          	mul	a0,a6,a0
    206c:	00a308b3          	add	a7,t1,a0
    2070:	03c12283          	lw	t0,60(sp)
    2074:	00878533          	add	a0,a5,s0
    2078:	008530b3          	sltu	ra,a0,s0
    207c:	005885b3          	add	a1,a7,t0
    2080:	001585b3          	add	a1,a1,ra
    2084:	20001fb7          	lui	t6,0x20001
    2088:	e08fa603          	lw	a2,-504(t6) # 20000e08 <FStar_UInt128_u32_32>
    208c:	cacfe0ef          	jal	538 <i64_shr>
    2090:	00a488b3          	add	a7,s1,a0
    2094:	00a8b0b3          	sltu	ra,a7,a0
    2098:	00b90eb3          	add	t4,s2,a1
    209c:	001e8eb3          	add	t4,t4,ra
    20a0:	0f112023          	sw	a7,224(sp)
    20a4:	0fd12223          	sw	t4,228(sp)
    20a8:	06412e03          	lw	t3,100(sp)
    20ac:	00000013          	nop
    20b0:	0d812f83          	lw	t6,216(sp)
    20b4:	01fe2023          	sw	t6,0(t3)
    20b8:	0dc12f83          	lw	t6,220(sp)
    20bc:	01fe2223          	sw	t6,4(t3)
    20c0:	0e012f83          	lw	t6,224(sp)
    20c4:	01fe2423          	sw	t6,8(t3)
    20c8:	0e412f83          	lw	t6,228(sp)
    20cc:	01fe2623          	sw	t6,12(t3)
    20d0:	00000013          	nop
    20d4:	0c810293          	add	t0,sp,200
    20d8:	0da12c23          	sw	s10,216(sp)
    20dc:	0d512e23          	sw	s5,220(sp)
    20e0:	00000793          	li	a5,0
    20e4:	00000693          	li	a3,0
    20e8:	0ed12023          	sw	a3,224(sp)
    20ec:	0ef12223          	sw	a5,228(sp)
    20f0:	00000013          	nop
    20f4:	0d812f83          	lw	t6,216(sp)
    20f8:	01f2a023          	sw	t6,0(t0)
    20fc:	0dc12f83          	lw	t6,220(sp)
    2100:	01f2a223          	sw	t6,4(t0)
    2104:	0e012f83          	lw	t6,224(sp)
    2108:	01f2a423          	sw	t6,8(t0)
    210c:	0e412f83          	lw	t6,228(sp)
    2110:	01f2a623          	sw	t6,12(t0)
    2114:	00000013          	nop
    2118:	0c810513          	add	a0,sp,200
    211c:	07810713          	add	a4,sp,120
    2120:	08810f13          	add	t5,sp,136
    2124:	00000013          	nop
    2128:	00072f83          	lw	t6,0(a4)
    212c:	0ff12423          	sw	t6,232(sp)
    2130:	00472f83          	lw	t6,4(a4)
    2134:	0ff12623          	sw	t6,236(sp)
    2138:	00872f83          	lw	t6,8(a4)
    213c:	0ff12823          	sw	t6,240(sp)
    2140:	00c72f83          	lw	t6,12(a4)
    2144:	0ff12a23          	sw	t6,244(sp)
    2148:	00000013          	nop
    214c:	00000013          	nop
    2150:	00052f83          	lw	t6,0(a0)
    2154:	0ff12c23          	sw	t6,248(sp)
    2158:	00452f83          	lw	t6,4(a0)
    215c:	0ff12e23          	sw	t6,252(sp)
    2160:	00852f83          	lw	t6,8(a0)
    2164:	11f12023          	sw	t6,256(sp)
    2168:	00c52f83          	lw	t6,12(a0)
    216c:	11f12223          	sw	t6,260(sp)
    2170:	00000013          	nop
    2174:	0e812283          	lw	t0,232(sp)
    2178:	0ec12303          	lw	t1,236(sp)
    217c:	01a28733          	add	a4,t0,s10
    2180:	01a730b3          	sltu	ra,a4,s10
    2184:	01530633          	add	a2,t1,s5
    2188:	00160633          	add	a2,a2,ra
    218c:	0ce12c23          	sw	a4,216(sp)
    2190:	0cc12e23          	sw	a2,220(sp)
    2194:	01a28533          	add	a0,t0,s10
    2198:	01a530b3          	sltu	ra,a0,s10
    219c:	01530333          	add	t1,t1,s5
    21a0:	00130333          	add	t1,t1,ra
    21a4:	00000293          	li	t0,0
    21a8:	000a8593          	mv	a1,s5
    21ac:	00030393          	mv	t2,t1
    21b0:	00b3ce33          	xor	t3,t2,a1
    21b4:	01a530b3          	sltu	ra,a0,s10
    21b8:	41a50533          	sub	a0,a0,s10
    21bc:	41530833          	sub	a6,t1,s5
    21c0:	40180833          	sub	a6,a6,ra
    21c4:	00b84833          	xor	a6,a6,a1
    21c8:	010e6833          	or	a6,t3,a6
    21cc:	0103c833          	xor	a6,t2,a6
    21d0:	01f85e13          	srl	t3,a6,0x1f
    21d4:	00d883b3          	add	t2,a7,a3
    21d8:	00d3b0b3          	sltu	ra,t2,a3
    21dc:	00fe88b3          	add	a7,t4,a5
    21e0:	001888b3          	add	a7,a7,ra
    21e4:	01c38833          	add	a6,t2,t3
    21e8:	01c830b3          	sltu	ra,a6,t3
    21ec:	00588e33          	add	t3,a7,t0
    21f0:	001e0e33          	add	t3,t3,ra
    21f4:	0f012023          	sw	a6,224(sp)
    21f8:	0fc12223          	sw	t3,228(sp)
    21fc:	00000013          	nop
    2200:	0d812f83          	lw	t6,216(sp)
    2204:	01ff2023          	sw	t6,0(t5)
    2208:	0dc12f83          	lw	t6,220(sp)
    220c:	01ff2223          	sw	t6,4(t5)
    2210:	0e012f83          	lw	t6,224(sp)
    2214:	01ff2423          	sw	t6,8(t5)
    2218:	0e412f83          	lw	t6,228(sp)
    221c:	01ff2623          	sw	t6,12(t5)
    2220:	00000013          	nop
    2224:	0b810513          	add	a0,sp,184
    2228:	0db12c23          	sw	s11,216(sp)
    222c:	0d612e23          	sw	s6,220(sp)
    2230:	0ed12023          	sw	a3,224(sp)
    2234:	0ef12223          	sw	a5,228(sp)
    2238:	00000013          	nop
    223c:	0d812f83          	lw	t6,216(sp)
    2240:	01f52023          	sw	t6,0(a0)
    2244:	0dc12f83          	lw	t6,220(sp)
    2248:	01f52223          	sw	t6,4(a0)
    224c:	0e012f83          	lw	t6,224(sp)
    2250:	01f52423          	sw	t6,8(a0)
    2254:	0e412f83          	lw	t6,228(sp)
    2258:	01f52623          	sw	t6,12(a0)
    225c:	00000013          	nop
    2260:	0b810593          	add	a1,sp,184
    2264:	08810513          	add	a0,sp,136
    2268:	06810413          	add	s0,sp,104
    226c:	00000013          	nop
    2270:	00052f83          	lw	t6,0(a0)
    2274:	0ff12423          	sw	t6,232(sp)
    2278:	00452f83          	lw	t6,4(a0)
    227c:	0ff12623          	sw	t6,236(sp)
    2280:	00852f83          	lw	t6,8(a0)
    2284:	0ff12823          	sw	t6,240(sp)
    2288:	00c52f83          	lw	t6,12(a0)
    228c:	0ff12a23          	sw	t6,244(sp)
    2290:	00000013          	nop
    2294:	00000013          	nop
    2298:	0005af83          	lw	t6,0(a1)
    229c:	0ff12c23          	sw	t6,248(sp)
    22a0:	0045af83          	lw	t6,4(a1)
    22a4:	0ff12e23          	sw	t6,252(sp)
    22a8:	0085af83          	lw	t6,8(a1)
    22ac:	11f12023          	sw	t6,256(sp)
    22b0:	00c5af83          	lw	t6,12(a1)
    22b4:	11f12223          	sw	t6,260(sp)
    22b8:	00000013          	nop
    22bc:	01b70533          	add	a0,a4,s11
    22c0:	01b530b3          	sltu	ra,a0,s11
    22c4:	016605b3          	add	a1,a2,s6
    22c8:	001585b3          	add	a1,a1,ra
    22cc:	0ca12c23          	sw	a0,216(sp)
    22d0:	0cb12e23          	sw	a1,220(sp)
    22d4:	01b70eb3          	add	t4,a4,s11
    22d8:	01beb0b3          	sltu	ra,t4,s11
    22dc:	016603b3          	add	t2,a2,s6
    22e0:	001383b3          	add	t2,t2,ra
    22e4:	00000f13          	li	t5,0
    22e8:	000b0893          	mv	a7,s6
    22ec:	00038613          	mv	a2,t2
    22f0:	01164733          	xor	a4,a2,a7
    22f4:	01beb0b3          	sltu	ra,t4,s11
    22f8:	41be82b3          	sub	t0,t4,s11
    22fc:	41638eb3          	sub	t4,t2,s6
    2300:	401e8eb3          	sub	t4,t4,ra
    2304:	011eceb3          	xor	t4,t4,a7
    2308:	01d768b3          	or	a7,a4,t4
    230c:	01164633          	xor	a2,a2,a7
    2310:	01f65e93          	srl	t4,a2,0x1f
    2314:	00d80633          	add	a2,a6,a3
    2318:	00d630b3          	sltu	ra,a2,a3
    231c:	00fe02b3          	add	t0,t3,a5
    2320:	001282b3          	add	t0,t0,ra
    2324:	01d609b3          	add	s3,a2,t4
    2328:	01d9b0b3          	sltu	ra,s3,t4
    232c:	01e284b3          	add	s1,t0,t5
    2330:	001484b3          	add	s1,s1,ra
    2334:	0f312023          	sw	s3,224(sp)
    2338:	0e912223          	sw	s1,228(sp)
    233c:	00000013          	nop
    2340:	0d812f83          	lw	t6,216(sp)
    2344:	01f42023          	sw	t6,0(s0)
    2348:	0dc12f83          	lw	t6,220(sp)
    234c:	01f42223          	sw	t6,4(s0)
    2350:	0e012f83          	lw	t6,224(sp)
    2354:	01f42423          	sw	t6,8(s0)
    2358:	0e412f83          	lw	t6,228(sp)
    235c:	01f42623          	sw	t6,12(s0)
    2360:	00000013          	nop
    2364:	00000013          	nop
    2368:	06812f83          	lw	t6,104(sp)
    236c:	09f12c23          	sw	t6,152(sp)
    2370:	06c12f83          	lw	t6,108(sp)
    2374:	09f12e23          	sw	t6,156(sp)
    2378:	07012f83          	lw	t6,112(sp)
    237c:	0bf12023          	sw	t6,160(sp)
    2380:	07412f83          	lw	t6,116(sp)
    2384:	0bf12223          	sw	t6,164(sp)
    2388:	00000013          	nop
    238c:	09810313          	add	t1,sp,152
    2390:	00000013          	nop
    2394:	00032f83          	lw	t6,0(t1)
    2398:	0df12c23          	sw	t6,216(sp)
    239c:	00432f83          	lw	t6,4(t1)
    23a0:	0df12e23          	sw	t6,220(sp)
    23a4:	00832f83          	lw	t6,8(t1)
    23a8:	0ff12023          	sw	t6,224(sp)
    23ac:	00c32f83          	lw	t6,12(t1)
    23b0:	0ff12223          	sw	t6,228(sp)
    23b4:	00000013          	nop
    23b8:	00058393          	mv	t2,a1
    23bc:	00050313          	mv	t1,a0
    23c0:	006ca023          	sw	t1,0(s9)
    23c4:	007ca223          	sw	t2,4(s9)
    23c8:	09810613          	add	a2,sp,152
    23cc:	0a810913          	add	s2,sp,168
    23d0:	00000013          	nop
    23d4:	00062f83          	lw	t6,0(a2)
    23d8:	0ff12423          	sw	t6,232(sp)
    23dc:	00462f83          	lw	t6,4(a2)
    23e0:	0ff12623          	sw	t6,236(sp)
    23e4:	00862f83          	lw	t6,8(a2)
    23e8:	0ff12823          	sw	t6,240(sp)
    23ec:	00c62f83          	lw	t6,12(a2)
    23f0:	0ff12a23          	sw	t6,244(sp)
    23f4:	00000013          	nop
    23f8:	20001fb7          	lui	t6,0x20001
    23fc:	e04fa603          	lw	a2,-508(t6) # 20000e04 <FStar_UInt128_u32_64>
    2400:	04000f93          	li	t6,64
    2404:	0acfea63          	bltu	t6,a2,24b8 <mul_wide_add2_u64+0x7a8>
    2408:	04000693          	li	a3,64
    240c:	0e810f13          	add	t5,sp,232
    2410:	0f810413          	add	s0,sp,248
    2414:	00000013          	nop
    2418:	000f2f83          	lw	t6,0(t5)
    241c:	11f12423          	sw	t6,264(sp)
    2420:	004f2f83          	lw	t6,4(t5)
    2424:	11f12623          	sw	t6,268(sp)
    2428:	008f2f83          	lw	t6,8(t5)
    242c:	11f12823          	sw	t6,272(sp)
    2430:	00cf2f83          	lw	t6,12(t5)
    2434:	11f12a23          	sw	t6,276(sp)
    2438:	00000013          	nop
    243c:	40c68633          	sub	a2,a3,a2
    2440:	00048593          	mv	a1,s1
    2444:	00098513          	mv	a0,s3
    2448:	8f0fe0ef          	jal	538 <i64_shr>
    244c:	10a12c23          	sw	a0,280(sp)
    2450:	10b12e23          	sw	a1,284(sp)
    2454:	00000693          	li	a3,0
    2458:	00000613          	li	a2,0
    245c:	12c12023          	sw	a2,288(sp)
    2460:	12d12223          	sw	a3,292(sp)
    2464:	00000013          	nop
    2468:	11812f83          	lw	t6,280(sp)
    246c:	01f42023          	sw	t6,0(s0)
    2470:	11c12f83          	lw	t6,284(sp)
    2474:	01f42223          	sw	t6,4(s0)
    2478:	12012f83          	lw	t6,288(sp)
    247c:	01f42423          	sw	t6,8(s0)
    2480:	12412f83          	lw	t6,292(sp)
    2484:	01f42623          	sw	t6,12(s0)
    2488:	00000013          	nop
    248c:	00000013          	nop
    2490:	0f812f83          	lw	t6,248(sp)
    2494:	01f92023          	sw	t6,0(s2)
    2498:	0fc12f83          	lw	t6,252(sp)
    249c:	01f92223          	sw	t6,4(s2)
    24a0:	10012f83          	lw	t6,256(sp)
    24a4:	01f92423          	sw	t6,8(s2)
    24a8:	10412f83          	lw	t6,260(sp)
    24ac:	01f92623          	sw	t6,12(s2)
    24b0:	00000013          	nop
    24b4:	0e00006f          	j	2594 <mul_wide_add2_u64+0x884>
    24b8:	04000a13          	li	s4,64
    24bc:	0e810713          	add	a4,sp,232
    24c0:	0d810413          	add	s0,sp,216
    24c4:	00000013          	nop
    24c8:	00072f83          	lw	t6,0(a4)
    24cc:	11f12423          	sw	t6,264(sp)
    24d0:	00472f83          	lw	t6,4(a4)
    24d4:	11f12623          	sw	t6,268(sp)
    24d8:	00872f83          	lw	t6,8(a4)
    24dc:	11f12823          	sw	t6,272(sp)
    24e0:	00c72f83          	lw	t6,12(a4)
    24e4:	11f12a23          	sw	t6,276(sp)
    24e8:	00000013          	nop
    24ec:	04000613          	li	a2,64
    24f0:	848fe0ef          	jal	538 <i64_shr>
    24f4:	00058a93          	mv	s5,a1
    24f8:	00050b13          	mv	s6,a0
    24fc:	20001fb7          	lui	t6,0x20001
    2500:	e04fa883          	lw	a7,-508(t6) # 20000e04 <FStar_UInt128_u32_64>
    2504:	fc088613          	add	a2,a7,-64
    2508:	00048593          	mv	a1,s1
    250c:	00098513          	mv	a0,s3
    2510:	fd1fd0ef          	jal	4e0 <i64_shl>
    2514:	00ab07b3          	add	a5,s6,a0
    2518:	00a7b0b3          	sltu	ra,a5,a0
    251c:	00ba8833          	add	a6,s5,a1
    2520:	00180833          	add	a6,a6,ra
    2524:	10f12c23          	sw	a5,280(sp)
    2528:	11012e23          	sw	a6,284(sp)
    252c:	11012503          	lw	a0,272(sp)
    2530:	11412583          	lw	a1,276(sp)
    2534:	000a0613          	mv	a2,s4
    2538:	800fe0ef          	jal	538 <i64_shr>
    253c:	12a12023          	sw	a0,288(sp)
    2540:	12b12223          	sw	a1,292(sp)
    2544:	00000013          	nop
    2548:	11812f83          	lw	t6,280(sp)
    254c:	01f42023          	sw	t6,0(s0)
    2550:	11c12f83          	lw	t6,284(sp)
    2554:	01f42223          	sw	t6,4(s0)
    2558:	12012f83          	lw	t6,288(sp)
    255c:	01f42423          	sw	t6,8(s0)
    2560:	12412f83          	lw	t6,292(sp)
    2564:	01f42623          	sw	t6,12(s0)
    2568:	00000013          	nop
    256c:	00000013          	nop
    2570:	0d812f83          	lw	t6,216(sp)
    2574:	01f92023          	sw	t6,0(s2)
    2578:	0dc12f83          	lw	t6,220(sp)
    257c:	01f92223          	sw	t6,4(s2)
    2580:	0e012f83          	lw	t6,224(sp)
    2584:	01f92423          	sw	t6,8(s2)
    2588:	0e412f83          	lw	t6,228(sp)
    258c:	01f92623          	sw	t6,12(s2)
    2590:	00000013          	nop
    2594:	0a810313          	add	t1,sp,168
    2598:	00000013          	nop
    259c:	00032f83          	lw	t6,0(t1)
    25a0:	0df12c23          	sw	t6,216(sp)
    25a4:	00432f83          	lw	t6,4(t1)
    25a8:	0df12e23          	sw	t6,220(sp)
    25ac:	00832f83          	lw	t6,8(t1)
    25b0:	0ff12023          	sw	t6,224(sp)
    25b4:	00c32f83          	lw	t6,12(t1)
    25b8:	0ff12223          	sw	t6,228(sp)
    25bc:	00000013          	nop
    25c0:	0d812503          	lw	a0,216(sp)
    25c4:	0dc12583          	lw	a1,220(sp)
    25c8:	00812403          	lw	s0,8(sp)
    25cc:	00c12483          	lw	s1,12(sp)
    25d0:	01012903          	lw	s2,16(sp)
    25d4:	01412983          	lw	s3,20(sp)
    25d8:	01812a03          	lw	s4,24(sp)
    25dc:	01c12a83          	lw	s5,28(sp)
    25e0:	02012b03          	lw	s6,32(sp)
    25e4:	02412b83          	lw	s7,36(sp)
    25e8:	02812c03          	lw	s8,40(sp)
    25ec:	02c12c83          	lw	s9,44(sp)
    25f0:	03012d03          	lw	s10,48(sp)
    25f4:	03412d83          	lw	s11,52(sp)
    25f8:	00412083          	lw	ra,4(sp)
    25fc:	13010113          	add	sp,sp,304
    2600:	00008067          	ret

00002604 <bn_get_bits_u64>:
    2604:	00010f13          	mv	t5,sp
    2608:	fe010113          	add	sp,sp,-32
    260c:	01e12023          	sw	t5,0(sp)
    2610:	00112223          	sw	ra,4(sp)
    2614:	00812423          	sw	s0,8(sp)
    2618:	00912623          	sw	s1,12(sp)
    261c:	01212823          	sw	s2,16(sp)
    2620:	01312a23          	sw	s3,20(sp)
    2624:	01412c23          	sw	s4,24(sp)
    2628:	01512e23          	sw	s5,28(sp)
    262c:	00068913          	mv	s2,a3
    2630:	00058993          	mv	s3,a1
    2634:	00050413          	mv	s0,a0
    2638:	00665a93          	srl	s5,a2,0x6
    263c:	03f67a13          	and	s4,a2,63
    2640:	003a9293          	sll	t0,s5,0x3
    2644:	005986b3          	add	a3,s3,t0
    2648:	0006a503          	lw	a0,0(a3)
    264c:	0046a583          	lw	a1,4(a3)
    2650:	000a0613          	mv	a2,s4
    2654:	ee5fd0ef          	jal	538 <i64_shr>
    2658:	001a8613          	add	a2,s5,1
    265c:	02867c63          	bgeu	a2,s0,2694 <bn_get_bits_u64+0x90>
    2660:	03407a63          	bgeu	zero,s4,2694 <bn_get_bits_u64+0x90>
    2664:	00058493          	mv	s1,a1
    2668:	00050413          	mv	s0,a0
    266c:	003a9f13          	sll	t5,s5,0x3
    2670:	01e987b3          	add	a5,s3,t5
    2674:	0087a503          	lw	a0,8(a5)
    2678:	00c7a583          	lw	a1,12(a5)
    267c:	04000313          	li	t1,64
    2680:	41430633          	sub	a2,t1,s4
    2684:	e5dfd0ef          	jal	4e0 <i64_shl>
    2688:	00b4e4b3          	or	s1,s1,a1
    268c:	00a46433          	or	s0,s0,a0
    2690:	00c0006f          	j	269c <bn_get_bits_u64+0x98>
    2694:	00058493          	mv	s1,a1
    2698:	00050413          	mv	s0,a0
    269c:	00000593          	li	a1,0
    26a0:	00100513          	li	a0,1
    26a4:	00090613          	mv	a2,s2
    26a8:	e39fd0ef          	jal	4e0 <i64_shl>
    26ac:	00000393          	li	t2,0
    26b0:	00100313          	li	t1,1
    26b4:	006530b3          	sltu	ra,a0,t1
    26b8:	406502b3          	sub	t0,a0,t1
    26bc:	40758533          	sub	a0,a1,t2
    26c0:	40150533          	sub	a0,a0,ra
    26c4:	00a4f5b3          	and	a1,s1,a0
    26c8:	00547533          	and	a0,s0,t0
    26cc:	00812403          	lw	s0,8(sp)
    26d0:	00c12483          	lw	s1,12(sp)
    26d4:	01012903          	lw	s2,16(sp)
    26d8:	01412983          	lw	s3,20(sp)
    26dc:	01812a03          	lw	s4,24(sp)
    26e0:	01c12a83          	lw	s5,28(sp)
    26e4:	00412083          	lw	ra,4(sp)
    26e8:	02010113          	add	sp,sp,32
    26ec:	00008067          	ret

000026f0 <bn_add_eq_len_u64>:
    26f0:	00010f13          	mv	t5,sp
    26f4:	fc010113          	add	sp,sp,-64
    26f8:	01e12023          	sw	t5,0(sp)
    26fc:	00112223          	sw	ra,4(sp)
    2700:	00812423          	sw	s0,8(sp)
    2704:	00912623          	sw	s1,12(sp)
    2708:	01212823          	sw	s2,16(sp)
    270c:	01312a23          	sw	s3,20(sp)
    2710:	01412c23          	sw	s4,24(sp)
    2714:	01512e23          	sw	s5,28(sp)
    2718:	03612023          	sw	s6,32(sp)
    271c:	03712223          	sw	s7,36(sp)
    2720:	03812423          	sw	s8,40(sp)
    2724:	03912623          	sw	s9,44(sp)
    2728:	03a12823          	sw	s10,48(sp)
    272c:	03b12a23          	sw	s11,52(sp)
    2730:	00068913          	mv	s2,a3
    2734:	00060a93          	mv	s5,a2
    2738:	00058993          	mv	s3,a1
    273c:	00050a13          	mv	s4,a0
    2740:	00000593          	li	a1,0
    2744:	00000513          	li	a0,0
    2748:	00000493          	li	s1,0
    274c:	002a5893          	srl	a7,s4,0x2
    2750:	2314fe63          	bgeu	s1,a7,298c <bn_add_eq_len_u64+0x29c>
    2754:	00549613          	sll	a2,s1,0x5
    2758:	00c986b3          	add	a3,s3,a2
    275c:	0006ab03          	lw	s6,0(a3)
    2760:	0046ad83          	lw	s11,4(a3)
    2764:	00ca8833          	add	a6,s5,a2
    2768:	00082683          	lw	a3,0(a6)
    276c:	00482703          	lw	a4,4(a6)
    2770:	00c90d33          	add	s10,s2,a2
    2774:	00050b93          	mv	s7,a0
    2778:	017b0533          	add	a0,s6,s7
    277c:	017530b3          	sltu	ra,a0,s7
    2780:	00bd83b3          	add	t2,s11,a1
    2784:	001383b3          	add	t2,t2,ra
    2788:	00d50cb3          	add	s9,a0,a3
    278c:	00dcb0b3          	sltu	ra,s9,a3
    2790:	00e38c33          	add	s8,t2,a4
    2794:	001c0c33          	add	s8,s8,ra
    2798:	000d8693          	mv	a3,s11
    279c:	000b0613          	mv	a2,s6
    27a0:	000c0593          	mv	a1,s8
    27a4:	000c8513          	mv	a0,s9
    27a8:	cccfe0ef          	jal	c74 <FStar_UInt64_gte_mask>
    27ac:	00050413          	mv	s0,a0
    27b0:	000d8693          	mv	a3,s11
    27b4:	000b0613          	mv	a2,s6
    27b8:	000c0593          	mv	a1,s8
    27bc:	000c8513          	mv	a0,s9
    27c0:	c50fe0ef          	jal	c10 <FStar_UInt64_eq_mask>
    27c4:	fff44893          	not	a7,s0
    27c8:	017575b3          	and	a1,a0,s7
    27cc:	00b8e3b3          	or	t2,a7,a1
    27d0:	00000813          	li	a6,0
    27d4:	0013fd93          	and	s11,t2,1
    27d8:	019d2023          	sw	s9,0(s10)
    27dc:	018d2223          	sw	s8,4(s10)
    27e0:	00549513          	sll	a0,s1,0x5
    27e4:	00a988b3          	add	a7,s3,a0
    27e8:	0088ac83          	lw	s9,8(a7)
    27ec:	00c8ac03          	lw	s8,12(a7)
    27f0:	00aa87b3          	add	a5,s5,a0
    27f4:	0087a703          	lw	a4,8(a5)
    27f8:	00c7a783          	lw	a5,12(a5)
    27fc:	00a905b3          	add	a1,s2,a0
    2800:	00858413          	add	s0,a1,8
    2804:	01bc8e33          	add	t3,s9,s11
    2808:	01be30b3          	sltu	ra,t3,s11
    280c:	010c06b3          	add	a3,s8,a6
    2810:	001686b3          	add	a3,a3,ra
    2814:	00ee0b33          	add	s6,t3,a4
    2818:	00eb30b3          	sltu	ra,s6,a4
    281c:	00f68bb3          	add	s7,a3,a5
    2820:	001b8bb3          	add	s7,s7,ra
    2824:	000c0693          	mv	a3,s8
    2828:	000c8613          	mv	a2,s9
    282c:	000b8593          	mv	a1,s7
    2830:	000b0513          	mv	a0,s6
    2834:	c40fe0ef          	jal	c74 <FStar_UInt64_gte_mask>
    2838:	00050d13          	mv	s10,a0
    283c:	000c0693          	mv	a3,s8
    2840:	000c8613          	mv	a2,s9
    2844:	000b8593          	mv	a1,s7
    2848:	000b0513          	mv	a0,s6
    284c:	bc4fe0ef          	jal	c10 <FStar_UInt64_eq_mask>
    2850:	fffd4f13          	not	t5,s10
    2854:	01b57eb3          	and	t4,a0,s11
    2858:	01df6333          	or	t1,t5,t4
    285c:	00000613          	li	a2,0
    2860:	00137c93          	and	s9,t1,1
    2864:	01642023          	sw	s6,0(s0)
    2868:	01742223          	sw	s7,4(s0)
    286c:	00549313          	sll	t1,s1,0x5
    2870:	00698e33          	add	t3,s3,t1
    2874:	010e2b83          	lw	s7,16(t3)
    2878:	014e2c03          	lw	s8,20(t3)
    287c:	006a8eb3          	add	t4,s5,t1
    2880:	010ea283          	lw	t0,16(t4)
    2884:	014ea383          	lw	t2,20(t4)
    2888:	00690f33          	add	t5,s2,t1
    288c:	010f0413          	add	s0,t5,16
    2890:	019b88b3          	add	a7,s7,s9
    2894:	0198b0b3          	sltu	ra,a7,s9
    2898:	00cc0333          	add	t1,s8,a2
    289c:	00130333          	add	t1,t1,ra
    28a0:	00588d33          	add	s10,a7,t0
    28a4:	005d30b3          	sltu	ra,s10,t0
    28a8:	00730b33          	add	s6,t1,t2
    28ac:	001b0b33          	add	s6,s6,ra
    28b0:	000c0693          	mv	a3,s8
    28b4:	000b8613          	mv	a2,s7
    28b8:	000b0593          	mv	a1,s6
    28bc:	000d0513          	mv	a0,s10
    28c0:	bb4fe0ef          	jal	c74 <FStar_UInt64_gte_mask>
    28c4:	00050d93          	mv	s11,a0
    28c8:	000c0693          	mv	a3,s8
    28cc:	000b8613          	mv	a2,s7
    28d0:	000b0593          	mv	a1,s6
    28d4:	000d0513          	mv	a0,s10
    28d8:	b38fe0ef          	jal	c10 <FStar_UInt64_eq_mask>
    28dc:	fffdc393          	not	t2,s11
    28e0:	01957e33          	and	t3,a0,s9
    28e4:	01c3e533          	or	a0,t2,t3
    28e8:	00000693          	li	a3,0
    28ec:	00157c93          	and	s9,a0,1
    28f0:	01a42023          	sw	s10,0(s0)
    28f4:	01642223          	sw	s6,4(s0)
    28f8:	00549f13          	sll	t5,s1,0x5
    28fc:	01e987b3          	add	a5,s3,t5
    2900:	0187ad03          	lw	s10,24(a5)
    2904:	01c7ad83          	lw	s11,28(a5)
    2908:	01ea8eb3          	add	t4,s5,t5
    290c:	018ea703          	lw	a4,24(t4)
    2910:	01cea783          	lw	a5,28(t4)
    2914:	01e90833          	add	a6,s2,t5
    2918:	01880c13          	add	s8,a6,24
    291c:	019d08b3          	add	a7,s10,s9
    2920:	0198b0b3          	sltu	ra,a7,s9
    2924:	00dd8e33          	add	t3,s11,a3
    2928:	001e0e33          	add	t3,t3,ra
    292c:	00e88bb3          	add	s7,a7,a4
    2930:	00ebb0b3          	sltu	ra,s7,a4
    2934:	00fe0b33          	add	s6,t3,a5
    2938:	001b0b33          	add	s6,s6,ra
    293c:	000d8693          	mv	a3,s11
    2940:	000d0613          	mv	a2,s10
    2944:	000b0593          	mv	a1,s6
    2948:	000b8513          	mv	a0,s7
    294c:	b28fe0ef          	jal	c74 <FStar_UInt64_gte_mask>
    2950:	00050413          	mv	s0,a0
    2954:	000d8693          	mv	a3,s11
    2958:	000d0613          	mv	a2,s10
    295c:	000b0593          	mv	a1,s6
    2960:	000b8513          	mv	a0,s7
    2964:	aacfe0ef          	jal	c10 <FStar_UInt64_eq_mask>
    2968:	fff44813          	not	a6,s0
    296c:	019572b3          	and	t0,a0,s9
    2970:	005863b3          	or	t2,a6,t0
    2974:	00000593          	li	a1,0
    2978:	0013f513          	and	a0,t2,1
    297c:	017c2023          	sw	s7,0(s8)
    2980:	016c2223          	sw	s6,4(s8)
    2984:	00148493          	add	s1,s1,1
    2988:	dc5ff06f          	j	274c <bn_add_eq_len_u64+0x5c>
    298c:	00289b93          	sll	s7,a7,0x2
    2990:	094bfc63          	bgeu	s7,s4,2a28 <bn_add_eq_len_u64+0x338>
    2994:	003b9e13          	sll	t3,s7,0x3
    2998:	01c98333          	add	t1,s3,t3
    299c:	00032403          	lw	s0,0(t1)
    29a0:	00432483          	lw	s1,4(t1)
    29a4:	01ca83b3          	add	t2,s5,t3
    29a8:	0003a603          	lw	a2,0(t2)
    29ac:	0043a683          	lw	a3,4(t2)
    29b0:	01c90b33          	add	s6,s2,t3
    29b4:	00050d13          	mv	s10,a0
    29b8:	01a40733          	add	a4,s0,s10
    29bc:	01a730b3          	sltu	ra,a4,s10
    29c0:	00b48f33          	add	t5,s1,a1
    29c4:	001f0f33          	add	t5,t5,ra
    29c8:	00c70c33          	add	s8,a4,a2
    29cc:	00cc30b3          	sltu	ra,s8,a2
    29d0:	00df0cb3          	add	s9,t5,a3
    29d4:	001c8cb3          	add	s9,s9,ra
    29d8:	00048693          	mv	a3,s1
    29dc:	00040613          	mv	a2,s0
    29e0:	000c8593          	mv	a1,s9
    29e4:	000c0513          	mv	a0,s8
    29e8:	a8cfe0ef          	jal	c74 <FStar_UInt64_gte_mask>
    29ec:	00050d93          	mv	s11,a0
    29f0:	00048693          	mv	a3,s1
    29f4:	00040613          	mv	a2,s0
    29f8:	000c8593          	mv	a1,s9
    29fc:	000c0513          	mv	a0,s8
    2a00:	a10fe0ef          	jal	c10 <FStar_UInt64_eq_mask>
    2a04:	fffdc293          	not	t0,s11
    2a08:	01a577b3          	and	a5,a0,s10
    2a0c:	00f2eeb3          	or	t4,t0,a5
    2a10:	00000593          	li	a1,0
    2a14:	001ef513          	and	a0,t4,1
    2a18:	018b2023          	sw	s8,0(s6)
    2a1c:	019b2223          	sw	s9,4(s6)
    2a20:	001b8b93          	add	s7,s7,1
    2a24:	f6dff06f          	j	2990 <bn_add_eq_len_u64+0x2a0>
    2a28:	00812403          	lw	s0,8(sp)
    2a2c:	00c12483          	lw	s1,12(sp)
    2a30:	01012903          	lw	s2,16(sp)
    2a34:	01412983          	lw	s3,20(sp)
    2a38:	01812a03          	lw	s4,24(sp)
    2a3c:	01c12a83          	lw	s5,28(sp)
    2a40:	02012b03          	lw	s6,32(sp)
    2a44:	02412b83          	lw	s7,36(sp)
    2a48:	02812c03          	lw	s8,40(sp)
    2a4c:	02c12c83          	lw	s9,44(sp)
    2a50:	03012d03          	lw	s10,48(sp)
    2a54:	03412d83          	lw	s11,52(sp)
    2a58:	00412083          	lw	ra,4(sp)
    2a5c:	04010113          	add	sp,sp,64
    2a60:	00008067          	ret

00002a64 <bn_is_zero_mask4>:
    2a64:	00010f13          	mv	t5,sp
    2a68:	fc010113          	add	sp,sp,-64
    2a6c:	01e12023          	sw	t5,0(sp)
    2a70:	00112223          	sw	ra,4(sp)
    2a74:	00812423          	sw	s0,8(sp)
    2a78:	00912623          	sw	s1,12(sp)
    2a7c:	01212823          	sw	s2,16(sp)
    2a80:	01312a23          	sw	s3,20(sp)
    2a84:	00050913          	mv	s2,a0
    2a88:	00000393          	li	t2,0
    2a8c:	00000313          	li	t1,0
    2a90:	00612c23          	sw	t1,24(sp)
    2a94:	00712e23          	sw	t2,28(sp)
    2a98:	02612023          	sw	t1,32(sp)
    2a9c:	02712223          	sw	t2,36(sp)
    2aa0:	02612423          	sw	t1,40(sp)
    2aa4:	02712623          	sw	t2,44(sp)
    2aa8:	02612823          	sw	t1,48(sp)
    2aac:	02712a23          	sw	t2,52(sp)
    2ab0:	fff00493          	li	s1,-1
    2ab4:	fff00413          	li	s0,-1
    2ab8:	00000993          	li	s3,0
    2abc:	00399293          	sll	t0,s3,0x3
    2ac0:	005906b3          	add	a3,s2,t0
    2ac4:	0006a503          	lw	a0,0(a3)
    2ac8:	0046a583          	lw	a1,4(a3)
    2acc:	01810613          	add	a2,sp,24
    2ad0:	005606b3          	add	a3,a2,t0
    2ad4:	0006a603          	lw	a2,0(a3)
    2ad8:	0046a683          	lw	a3,4(a3)
    2adc:	934fe0ef          	jal	c10 <FStar_UInt64_eq_mask>
    2ae0:	0095f4b3          	and	s1,a1,s1
    2ae4:	00857433          	and	s0,a0,s0
    2ae8:	00198993          	add	s3,s3,1
    2aec:	00400f93          	li	t6,4
    2af0:	fdf9e6e3          	bltu	s3,t6,2abc <bn_is_zero_mask4+0x58>
    2af4:	00048593          	mv	a1,s1
    2af8:	00040513          	mv	a0,s0
    2afc:	00812403          	lw	s0,8(sp)
    2b00:	00c12483          	lw	s1,12(sp)
    2b04:	01012903          	lw	s2,16(sp)
    2b08:	01412983          	lw	s3,20(sp)
    2b0c:	00412083          	lw	ra,4(sp)
    2b10:	04010113          	add	sp,sp,64
    2b14:	00008067          	ret

00002b18 <bn_add_mod4>:
    2b18:	00010f13          	mv	t5,sp
    2b1c:	fa010113          	add	sp,sp,-96
    2b20:	01e12023          	sw	t5,0(sp)
    2b24:	00112223          	sw	ra,4(sp)
    2b28:	00812423          	sw	s0,8(sp)
    2b2c:	00912623          	sw	s1,12(sp)
    2b30:	01212823          	sw	s2,16(sp)
    2b34:	01312a23          	sw	s3,20(sp)
    2b38:	01412c23          	sw	s4,24(sp)
    2b3c:	01512e23          	sw	s5,28(sp)
    2b40:	03612023          	sw	s6,32(sp)
    2b44:	03712223          	sw	s7,36(sp)
    2b48:	03812423          	sw	s8,40(sp)
    2b4c:	03912623          	sw	s9,44(sp)
    2b50:	03a12823          	sw	s10,48(sp)
    2b54:	03b12a23          	sw	s11,52(sp)
    2b58:	00068493          	mv	s1,a3
    2b5c:	00060a93          	mv	s5,a2
    2b60:	02b12c23          	sw	a1,56(sp)
    2b64:	00050b13          	mv	s6,a0
    2b68:	00000993          	li	s3,0
    2b6c:	00000a13          	li	s4,0
    2b70:	00000913          	li	s2,0
    2b74:	00591893          	sll	a7,s2,0x5
    2b78:	011a85b3          	add	a1,s5,a7
    2b7c:	0005ab83          	lw	s7,0(a1)
    2b80:	0045a403          	lw	s0,4(a1)
    2b84:	01148533          	add	a0,s1,a7
    2b88:	00052603          	lw	a2,0(a0)
    2b8c:	00452683          	lw	a3,4(a0)
    2b90:	011b0c33          	add	s8,s6,a7
    2b94:	014b8333          	add	t1,s7,s4
    2b98:	014330b3          	sltu	ra,t1,s4
    2b9c:	01340533          	add	a0,s0,s3
    2ba0:	00150533          	add	a0,a0,ra
    2ba4:	00c309b3          	add	s3,t1,a2
    2ba8:	00c9b0b3          	sltu	ra,s3,a2
    2bac:	00d50cb3          	add	s9,a0,a3
    2bb0:	001c8cb3          	add	s9,s9,ra
    2bb4:	00040693          	mv	a3,s0
    2bb8:	000b8613          	mv	a2,s7
    2bbc:	000c8593          	mv	a1,s9
    2bc0:	00098513          	mv	a0,s3
    2bc4:	8b0fe0ef          	jal	c74 <FStar_UInt64_gte_mask>
    2bc8:	00050d13          	mv	s10,a0
    2bcc:	00040693          	mv	a3,s0
    2bd0:	000b8613          	mv	a2,s7
    2bd4:	000c8593          	mv	a1,s9
    2bd8:	00098513          	mv	a0,s3
    2bdc:	834fe0ef          	jal	c10 <FStar_UInt64_eq_mask>
    2be0:	fffd4893          	not	a7,s10
    2be4:	014576b3          	and	a3,a0,s4
    2be8:	00d8e6b3          	or	a3,a7,a3
    2bec:	00000793          	li	a5,0
    2bf0:	0016f413          	and	s0,a3,1
    2bf4:	013c2023          	sw	s3,0(s8)
    2bf8:	019c2223          	sw	s9,4(s8)
    2bfc:	00591693          	sll	a3,s2,0x5
    2c00:	00da8733          	add	a4,s5,a3
    2c04:	00872c03          	lw	s8,8(a4)
    2c08:	00c72c83          	lw	s9,12(a4)
    2c0c:	00d482b3          	add	t0,s1,a3
    2c10:	0082a383          	lw	t2,8(t0)
    2c14:	00c2a503          	lw	a0,12(t0)
    2c18:	00db0e33          	add	t3,s6,a3
    2c1c:	008e0a13          	add	s4,t3,8
    2c20:	008c06b3          	add	a3,s8,s0
    2c24:	0086b0b3          	sltu	ra,a3,s0
    2c28:	00fc8733          	add	a4,s9,a5
    2c2c:	00170733          	add	a4,a4,ra
    2c30:	00768bb3          	add	s7,a3,t2
    2c34:	007bb0b3          	sltu	ra,s7,t2
    2c38:	00a709b3          	add	s3,a4,a0
    2c3c:	001989b3          	add	s3,s3,ra
    2c40:	000c8693          	mv	a3,s9
    2c44:	000c0613          	mv	a2,s8
    2c48:	00098593          	mv	a1,s3
    2c4c:	000b8513          	mv	a0,s7
    2c50:	824fe0ef          	jal	c74 <FStar_UInt64_gte_mask>
    2c54:	00050d13          	mv	s10,a0
    2c58:	000c8693          	mv	a3,s9
    2c5c:	000c0613          	mv	a2,s8
    2c60:	00098593          	mv	a1,s3
    2c64:	000b8513          	mv	a0,s7
    2c68:	fa9fd0ef          	jal	c10 <FStar_UInt64_eq_mask>
    2c6c:	fffd4393          	not	t2,s10
    2c70:	00857333          	and	t1,a0,s0
    2c74:	0063ef33          	or	t5,t2,t1
    2c78:	00000713          	li	a4,0
    2c7c:	001f7c13          	and	s8,t5,1
    2c80:	017a2023          	sw	s7,0(s4)
    2c84:	013a2223          	sw	s3,4(s4)
    2c88:	00591813          	sll	a6,s2,0x5
    2c8c:	010a88b3          	add	a7,s5,a6
    2c90:	0108a983          	lw	s3,16(a7)
    2c94:	0148aa03          	lw	s4,20(a7)
    2c98:	010483b3          	add	t2,s1,a6
    2c9c:	0103a283          	lw	t0,16(t2)
    2ca0:	0143a303          	lw	t1,20(t2)
    2ca4:	010b08b3          	add	a7,s6,a6
    2ca8:	01088413          	add	s0,a7,16
    2cac:	01898eb3          	add	t4,s3,s8
    2cb0:	018eb0b3          	sltu	ra,t4,s8
    2cb4:	00ea08b3          	add	a7,s4,a4
    2cb8:	001888b3          	add	a7,a7,ra
    2cbc:	005e8cb3          	add	s9,t4,t0
    2cc0:	005cb0b3          	sltu	ra,s9,t0
    2cc4:	00688bb3          	add	s7,a7,t1
    2cc8:	001b8bb3          	add	s7,s7,ra
    2ccc:	000a0693          	mv	a3,s4
    2cd0:	00098613          	mv	a2,s3
    2cd4:	000b8593          	mv	a1,s7
    2cd8:	000c8513          	mv	a0,s9
    2cdc:	f99fd0ef          	jal	c74 <FStar_UInt64_gte_mask>
    2ce0:	00050d13          	mv	s10,a0
    2ce4:	000a0693          	mv	a3,s4
    2ce8:	00098613          	mv	a2,s3
    2cec:	000b8593          	mv	a1,s7
    2cf0:	000c8513          	mv	a0,s9
    2cf4:	f1dfd0ef          	jal	c10 <FStar_UInt64_eq_mask>
    2cf8:	fffd4893          	not	a7,s10
    2cfc:	018577b3          	and	a5,a0,s8
    2d00:	00f8e7b3          	or	a5,a7,a5
    2d04:	00000893          	li	a7,0
    2d08:	0017fa13          	and	s4,a5,1
    2d0c:	01942023          	sw	s9,0(s0)
    2d10:	01742223          	sw	s7,4(s0)
    2d14:	00591513          	sll	a0,s2,0x5
    2d18:	00aa83b3          	add	t2,s5,a0
    2d1c:	0183a403          	lw	s0,24(t2)
    2d20:	01c3a983          	lw	s3,28(t2)
    2d24:	00a483b3          	add	t2,s1,a0
    2d28:	0183a303          	lw	t1,24(t2)
    2d2c:	01c3a383          	lw	t2,28(t2)
    2d30:	00ab06b3          	add	a3,s6,a0
    2d34:	01868b93          	add	s7,a3,24
    2d38:	014405b3          	add	a1,s0,s4
    2d3c:	0145b0b3          	sltu	ra,a1,s4
    2d40:	01198e33          	add	t3,s3,a7
    2d44:	001e0e33          	add	t3,t3,ra
    2d48:	00658c33          	add	s8,a1,t1
    2d4c:	006c30b3          	sltu	ra,s8,t1
    2d50:	007e0cb3          	add	s9,t3,t2
    2d54:	001c8cb3          	add	s9,s9,ra
    2d58:	00098693          	mv	a3,s3
    2d5c:	00040613          	mv	a2,s0
    2d60:	000c8593          	mv	a1,s9
    2d64:	000c0513          	mv	a0,s8
    2d68:	f0dfd0ef          	jal	c74 <FStar_UInt64_gte_mask>
    2d6c:	00050d13          	mv	s10,a0
    2d70:	00098693          	mv	a3,s3
    2d74:	00040613          	mv	a2,s0
    2d78:	000c8593          	mv	a1,s9
    2d7c:	000c0513          	mv	a0,s8
    2d80:	e91fd0ef          	jal	c10 <FStar_UInt64_eq_mask>
    2d84:	fffd4813          	not	a6,s10
    2d88:	01457eb3          	and	t4,a0,s4
    2d8c:	01d86533          	or	a0,a6,t4
    2d90:	00000993          	li	s3,0
    2d94:	00157a13          	and	s4,a0,1
    2d98:	018ba023          	sw	s8,0(s7)
    2d9c:	019ba223          	sw	s9,4(s7)
    2da0:	00190913          	add	s2,s2,1
    2da4:	00100f93          	li	t6,1
    2da8:	ddf966e3          	bltu	s2,t6,2b74 <bn_add_mod4+0x5c>
    2dac:	00000593          	li	a1,0
    2db0:	00000d13          	li	s10,0
    2db4:	05a12023          	sw	s10,64(sp)
    2db8:	04b12223          	sw	a1,68(sp)
    2dbc:	05a12423          	sw	s10,72(sp)
    2dc0:	04b12623          	sw	a1,76(sp)
    2dc4:	05a12823          	sw	s10,80(sp)
    2dc8:	04b12a23          	sw	a1,84(sp)
    2dcc:	05a12c23          	sw	s10,88(sp)
    2dd0:	04b12e23          	sw	a1,92(sp)
    2dd4:	00000a93          	li	s5,0
    2dd8:	005a9e93          	sll	t4,s5,0x5
    2ddc:	01db02b3          	add	t0,s6,t4
    2de0:	0002ac03          	lw	s8,0(t0)
    2de4:	0042ac83          	lw	s9,4(t0)
    2de8:	03812503          	lw	a0,56(sp)
    2dec:	01d50833          	add	a6,a0,t4
    2df0:	00082883          	lw	a7,0(a6)
    2df4:	00482e03          	lw	t3,4(a6)
    2df8:	04010513          	add	a0,sp,64
    2dfc:	01d50433          	add	s0,a0,t4
    2e00:	011c30b3          	sltu	ra,s8,a7
    2e04:	411c08b3          	sub	a7,s8,a7
    2e08:	41cc86b3          	sub	a3,s9,t3
    2e0c:	401686b3          	sub	a3,a3,ra
    2e10:	01a8b0b3          	sltu	ra,a7,s10
    2e14:	41a88933          	sub	s2,a7,s10
    2e18:	40b68bb3          	sub	s7,a3,a1
    2e1c:	401b8bb3          	sub	s7,s7,ra
    2e20:	000c8693          	mv	a3,s9
    2e24:	000c0613          	mv	a2,s8
    2e28:	000b8593          	mv	a1,s7
    2e2c:	00090513          	mv	a0,s2
    2e30:	e45fd0ef          	jal	c74 <FStar_UInt64_gte_mask>
    2e34:	00050d93          	mv	s11,a0
    2e38:	000c8693          	mv	a3,s9
    2e3c:	000c0613          	mv	a2,s8
    2e40:	000b8593          	mv	a1,s7
    2e44:	00090513          	mv	a0,s2
    2e48:	dc9fd0ef          	jal	c10 <FStar_UInt64_eq_mask>
    2e4c:	00050493          	mv	s1,a0
    2e50:	000c8693          	mv	a3,s9
    2e54:	000c0613          	mv	a2,s8
    2e58:	000b8593          	mv	a1,s7
    2e5c:	00090513          	mv	a0,s2
    2e60:	db1fd0ef          	jal	c10 <FStar_UInt64_eq_mask>
    2e64:	fff4cf13          	not	t5,s1
    2e68:	01edf633          	and	a2,s11,t5
    2e6c:	01a57e33          	and	t3,a0,s10
    2e70:	01c66f33          	or	t5,a2,t3
    2e74:	00000813          	li	a6,0
    2e78:	001f7713          	and	a4,t5,1
    2e7c:	01242023          	sw	s2,0(s0)
    2e80:	01742223          	sw	s7,4(s0)
    2e84:	00070c93          	mv	s9,a4
    2e88:	005a9713          	sll	a4,s5,0x5
    2e8c:	00eb07b3          	add	a5,s6,a4
    2e90:	0087a483          	lw	s1,8(a5)
    2e94:	00c7a903          	lw	s2,12(a5)
    2e98:	03812683          	lw	a3,56(sp)
    2e9c:	00e68e33          	add	t3,a3,a4
    2ea0:	008e2503          	lw	a0,8(t3)
    2ea4:	00ce2583          	lw	a1,12(t3)
    2ea8:	04010f13          	add	t5,sp,64
    2eac:	00ef0633          	add	a2,t5,a4
    2eb0:	00860c13          	add	s8,a2,8
    2eb4:	00a4b0b3          	sltu	ra,s1,a0
    2eb8:	40a48eb3          	sub	t4,s1,a0
    2ebc:	40b905b3          	sub	a1,s2,a1
    2ec0:	401585b3          	sub	a1,a1,ra
    2ec4:	019eb0b3          	sltu	ra,t4,s9
    2ec8:	419e8d33          	sub	s10,t4,s9
    2ecc:	41058db3          	sub	s11,a1,a6
    2ed0:	401d8db3          	sub	s11,s11,ra
    2ed4:	00090693          	mv	a3,s2
    2ed8:	00048613          	mv	a2,s1
    2edc:	000d8593          	mv	a1,s11
    2ee0:	000d0513          	mv	a0,s10
    2ee4:	d91fd0ef          	jal	c74 <FStar_UInt64_gte_mask>
    2ee8:	00050413          	mv	s0,a0
    2eec:	00090693          	mv	a3,s2
    2ef0:	00048613          	mv	a2,s1
    2ef4:	000d8593          	mv	a1,s11
    2ef8:	000d0513          	mv	a0,s10
    2efc:	d15fd0ef          	jal	c10 <FStar_UInt64_eq_mask>
    2f00:	00050b93          	mv	s7,a0
    2f04:	00090693          	mv	a3,s2
    2f08:	00048613          	mv	a2,s1
    2f0c:	000d8593          	mv	a1,s11
    2f10:	000d0513          	mv	a0,s10
    2f14:	cfdfd0ef          	jal	c10 <FStar_UInt64_eq_mask>
    2f18:	fffbcf13          	not	t5,s7
    2f1c:	01e47333          	and	t1,s0,t5
    2f20:	01957633          	and	a2,a0,s9
    2f24:	00c362b3          	or	t0,t1,a2
    2f28:	00000e93          	li	t4,0
    2f2c:	0012f593          	and	a1,t0,1
    2f30:	01ac2023          	sw	s10,0(s8)
    2f34:	01bc2223          	sw	s11,4(s8)
    2f38:	00058c93          	mv	s9,a1
    2f3c:	005a9793          	sll	a5,s5,0x5
    2f40:	00fb0833          	add	a6,s6,a5
    2f44:	01082d03          	lw	s10,16(a6)
    2f48:	01482d83          	lw	s11,20(a6)
    2f4c:	03812283          	lw	t0,56(sp)
    2f50:	00f282b3          	add	t0,t0,a5
    2f54:	0102af03          	lw	t5,16(t0)
    2f58:	0142a283          	lw	t0,20(t0)
    2f5c:	04010393          	add	t2,sp,64
    2f60:	00f38333          	add	t1,t2,a5
    2f64:	01030913          	add	s2,t1,16
    2f68:	01ed30b3          	sltu	ra,s10,t5
    2f6c:	41ed06b3          	sub	a3,s10,t5
    2f70:	405d85b3          	sub	a1,s11,t0
    2f74:	401585b3          	sub	a1,a1,ra
    2f78:	0196b0b3          	sltu	ra,a3,s9
    2f7c:	41968433          	sub	s0,a3,s9
    2f80:	41d584b3          	sub	s1,a1,t4
    2f84:	401484b3          	sub	s1,s1,ra
    2f88:	000d8693          	mv	a3,s11
    2f8c:	000d0613          	mv	a2,s10
    2f90:	00048593          	mv	a1,s1
    2f94:	00040513          	mv	a0,s0
    2f98:	cddfd0ef          	jal	c74 <FStar_UInt64_gte_mask>
    2f9c:	00050c13          	mv	s8,a0
    2fa0:	000d8693          	mv	a3,s11
    2fa4:	000d0613          	mv	a2,s10
    2fa8:	00048593          	mv	a1,s1
    2fac:	00040513          	mv	a0,s0
    2fb0:	c61fd0ef          	jal	c10 <FStar_UInt64_eq_mask>
    2fb4:	00050b93          	mv	s7,a0
    2fb8:	000d8693          	mv	a3,s11
    2fbc:	000d0613          	mv	a2,s10
    2fc0:	00048593          	mv	a1,s1
    2fc4:	00040513          	mv	a0,s0
    2fc8:	c49fd0ef          	jal	c10 <FStar_UInt64_eq_mask>
    2fcc:	fffbc793          	not	a5,s7
    2fd0:	00fc7eb3          	and	t4,s8,a5
    2fd4:	019575b3          	and	a1,a0,s9
    2fd8:	00bee633          	or	a2,t4,a1
    2fdc:	00000813          	li	a6,0
    2fe0:	00167393          	and	t2,a2,1
    2fe4:	00892023          	sw	s0,0(s2)
    2fe8:	00992223          	sw	s1,4(s2)
    2fec:	00038c93          	mv	s9,t2
    2ff0:	005a9513          	sll	a0,s5,0x5
    2ff4:	00ab05b3          	add	a1,s6,a0
    2ff8:	0185a403          	lw	s0,24(a1)
    2ffc:	01c5a483          	lw	s1,28(a1)
    3000:	03812303          	lw	t1,56(sp)
    3004:	00a307b3          	add	a5,t1,a0
    3008:	0187a583          	lw	a1,24(a5)
    300c:	01c7a603          	lw	a2,28(a5)
    3010:	04010e93          	add	t4,sp,64
    3014:	00ae8533          	add	a0,t4,a0
    3018:	01850d93          	add	s11,a0,24
    301c:	00b430b3          	sltu	ra,s0,a1
    3020:	40b40333          	sub	t1,s0,a1
    3024:	40c48733          	sub	a4,s1,a2
    3028:	40170733          	sub	a4,a4,ra
    302c:	019330b3          	sltu	ra,t1,s9
    3030:	41930bb3          	sub	s7,t1,s9
    3034:	41070c33          	sub	s8,a4,a6
    3038:	401c0c33          	sub	s8,s8,ra
    303c:	00048693          	mv	a3,s1
    3040:	00040613          	mv	a2,s0
    3044:	000c0593          	mv	a1,s8
    3048:	000b8513          	mv	a0,s7
    304c:	c29fd0ef          	jal	c74 <FStar_UInt64_gte_mask>
    3050:	00050913          	mv	s2,a0
    3054:	00048693          	mv	a3,s1
    3058:	00040613          	mv	a2,s0
    305c:	000c0593          	mv	a1,s8
    3060:	000b8513          	mv	a0,s7
    3064:	badfd0ef          	jal	c10 <FStar_UInt64_eq_mask>
    3068:	00050d13          	mv	s10,a0
    306c:	00048693          	mv	a3,s1
    3070:	00040613          	mv	a2,s0
    3074:	000c0593          	mv	a1,s8
    3078:	000b8513          	mv	a0,s7
    307c:	b95fd0ef          	jal	c10 <FStar_UInt64_eq_mask>
    3080:	fffd4293          	not	t0,s10
    3084:	00597e33          	and	t3,s2,t0
    3088:	019577b3          	and	a5,a0,s9
    308c:	00fe6533          	or	a0,t3,a5
    3090:	00000593          	li	a1,0
    3094:	00157613          	and	a2,a0,1
    3098:	017da023          	sw	s7,0(s11)
    309c:	018da223          	sw	s8,4(s11)
    30a0:	00060d13          	mv	s10,a2
    30a4:	001a8a93          	add	s5,s5,1
    30a8:	00100f93          	li	t6,1
    30ac:	d3fae6e3          	bltu	s5,t6,2dd8 <bn_add_mod4+0x2c0>
    30b0:	01aa30b3          	sltu	ra,s4,s10
    30b4:	41aa0333          	sub	t1,s4,s10
    30b8:	40b98eb3          	sub	t4,s3,a1
    30bc:	401e8eb3          	sub	t4,t4,ra
    30c0:	00000593          	li	a1,0
    30c4:	000e8f13          	mv	t5,t4
    30c8:	00359693          	sll	a3,a1,0x3
    30cc:	00db0533          	add	a0,s6,a3
    30d0:	00052703          	lw	a4,0(a0)
    30d4:	00452e03          	lw	t3,4(a0)
    30d8:	01cf7633          	and	a2,t5,t3
    30dc:	00030393          	mv	t2,t1
    30e0:	00e3f733          	and	a4,t2,a4
    30e4:	ffff4293          	not	t0,t5
    30e8:	fff3c813          	not	a6,t2
    30ec:	04010e13          	add	t3,sp,64
    30f0:	00de03b3          	add	t2,t3,a3
    30f4:	0003ae03          	lw	t3,0(t2)
    30f8:	0043a783          	lw	a5,4(t2)
    30fc:	00f2f6b3          	and	a3,t0,a5
    3100:	01c872b3          	and	t0,a6,t3
    3104:	00d668b3          	or	a7,a2,a3
    3108:	00576833          	or	a6,a4,t0
    310c:	01052023          	sw	a6,0(a0)
    3110:	01152223          	sw	a7,4(a0)
    3114:	00158593          	add	a1,a1,1
    3118:	00400f93          	li	t6,4
    311c:	fbf5e4e3          	bltu	a1,t6,30c4 <bn_add_mod4+0x5ac>
    3120:	00812403          	lw	s0,8(sp)
    3124:	00c12483          	lw	s1,12(sp)
    3128:	01012903          	lw	s2,16(sp)
    312c:	01412983          	lw	s3,20(sp)
    3130:	01812a03          	lw	s4,24(sp)
    3134:	01c12a83          	lw	s5,28(sp)
    3138:	02012b03          	lw	s6,32(sp)
    313c:	02412b83          	lw	s7,36(sp)
    3140:	02812c03          	lw	s8,40(sp)
    3144:	02c12c83          	lw	s9,44(sp)
    3148:	03012d03          	lw	s10,48(sp)
    314c:	03412d83          	lw	s11,52(sp)
    3150:	00412083          	lw	ra,4(sp)
    3154:	06010113          	add	sp,sp,96
    3158:	00008067          	ret

0000315c <bn_sub4>:
    315c:	00010f13          	mv	t5,sp
    3160:	fc010113          	add	sp,sp,-64
    3164:	01e12023          	sw	t5,0(sp)
    3168:	00112223          	sw	ra,4(sp)
    316c:	00812423          	sw	s0,8(sp)
    3170:	00912623          	sw	s1,12(sp)
    3174:	01212823          	sw	s2,16(sp)
    3178:	01312a23          	sw	s3,20(sp)
    317c:	01412c23          	sw	s4,24(sp)
    3180:	01512e23          	sw	s5,28(sp)
    3184:	03612023          	sw	s6,32(sp)
    3188:	03712223          	sw	s7,36(sp)
    318c:	03812423          	sw	s8,40(sp)
    3190:	03912623          	sw	s9,44(sp)
    3194:	03a12823          	sw	s10,48(sp)
    3198:	03b12a23          	sw	s11,52(sp)
    319c:	00060a13          	mv	s4,a2
    31a0:	00058913          	mv	s2,a1
    31a4:	00050493          	mv	s1,a0
    31a8:	00000593          	li	a1,0
    31ac:	00000413          	li	s0,0
    31b0:	00000993          	li	s3,0
    31b4:	00599313          	sll	t1,s3,0x5
    31b8:	006906b3          	add	a3,s2,t1
    31bc:	0006ad03          	lw	s10,0(a3)
    31c0:	0046ad83          	lw	s11,4(a3)
    31c4:	006a07b3          	add	a5,s4,t1
    31c8:	0007ae83          	lw	t4,0(a5)
    31cc:	0047af03          	lw	t5,4(a5)
    31d0:	00648b33          	add	s6,s1,t1
    31d4:	01dd30b3          	sltu	ra,s10,t4
    31d8:	41dd06b3          	sub	a3,s10,t4
    31dc:	41ed8833          	sub	a6,s11,t5
    31e0:	40180833          	sub	a6,a6,ra
    31e4:	0086b0b3          	sltu	ra,a3,s0
    31e8:	40868bb3          	sub	s7,a3,s0
    31ec:	40b80c33          	sub	s8,a6,a1
    31f0:	401c0c33          	sub	s8,s8,ra
    31f4:	000d8693          	mv	a3,s11
    31f8:	000d0613          	mv	a2,s10
    31fc:	000c0593          	mv	a1,s8
    3200:	000b8513          	mv	a0,s7
    3204:	a71fd0ef          	jal	c74 <FStar_UInt64_gte_mask>
    3208:	00050c93          	mv	s9,a0
    320c:	000d8693          	mv	a3,s11
    3210:	000d0613          	mv	a2,s10
    3214:	000c0593          	mv	a1,s8
    3218:	000b8513          	mv	a0,s7
    321c:	9f5fd0ef          	jal	c10 <FStar_UInt64_eq_mask>
    3220:	00050a93          	mv	s5,a0
    3224:	000d8693          	mv	a3,s11
    3228:	000d0613          	mv	a2,s10
    322c:	000c0593          	mv	a1,s8
    3230:	000b8513          	mv	a0,s7
    3234:	9ddfd0ef          	jal	c10 <FStar_UInt64_eq_mask>
    3238:	fffac893          	not	a7,s5
    323c:	011cf5b3          	and	a1,s9,a7
    3240:	00857eb3          	and	t4,a0,s0
    3244:	01d5e2b3          	or	t0,a1,t4
    3248:	00000313          	li	t1,0
    324c:	0012f413          	and	s0,t0,1
    3250:	017b2023          	sw	s7,0(s6)
    3254:	018b2223          	sw	s8,4(s6)
    3258:	00599513          	sll	a0,s3,0x5
    325c:	00a903b3          	add	t2,s2,a0
    3260:	0083ab83          	lw	s7,8(t2)
    3264:	00c3ac03          	lw	s8,12(t2)
    3268:	00aa0f33          	add	t5,s4,a0
    326c:	008f2683          	lw	a3,8(t5)
    3270:	00cf2703          	lw	a4,12(t5)
    3274:	00a48f33          	add	t5,s1,a0
    3278:	008f0b13          	add	s6,t5,8
    327c:	00dbb0b3          	sltu	ra,s7,a3
    3280:	40db8fb3          	sub	t6,s7,a3
    3284:	40ec05b3          	sub	a1,s8,a4
    3288:	401585b3          	sub	a1,a1,ra
    328c:	000f8713          	mv	a4,t6
    3290:	008730b3          	sltu	ra,a4,s0
    3294:	40870ab3          	sub	s5,a4,s0
    3298:	40658cb3          	sub	s9,a1,t1
    329c:	401c8cb3          	sub	s9,s9,ra
    32a0:	000c0693          	mv	a3,s8
    32a4:	000b8613          	mv	a2,s7
    32a8:	000c8593          	mv	a1,s9
    32ac:	000a8513          	mv	a0,s5
    32b0:	9c5fd0ef          	jal	c74 <FStar_UInt64_gte_mask>
    32b4:	00050d13          	mv	s10,a0
    32b8:	000c0693          	mv	a3,s8
    32bc:	000b8613          	mv	a2,s7
    32c0:	000c8593          	mv	a1,s9
    32c4:	000a8513          	mv	a0,s5
    32c8:	949fd0ef          	jal	c10 <FStar_UInt64_eq_mask>
    32cc:	00050d93          	mv	s11,a0
    32d0:	000c0693          	mv	a3,s8
    32d4:	000b8613          	mv	a2,s7
    32d8:	000c8593          	mv	a1,s9
    32dc:	000a8513          	mv	a0,s5
    32e0:	931fd0ef          	jal	c10 <FStar_UInt64_eq_mask>
    32e4:	fffdc793          	not	a5,s11
    32e8:	00fd72b3          	and	t0,s10,a5
    32ec:	00857633          	and	a2,a0,s0
    32f0:	00c2e3b3          	or	t2,t0,a2
    32f4:	00000613          	li	a2,0
    32f8:	0013fc13          	and	s8,t2,1
    32fc:	015b2023          	sw	s5,0(s6)
    3300:	019b2223          	sw	s9,4(s6)
    3304:	00599393          	sll	t2,s3,0x5
    3308:	00790e33          	add	t3,s2,t2
    330c:	010e2c83          	lw	s9,16(t3)
    3310:	014e2d83          	lw	s11,20(t3)
    3314:	007a06b3          	add	a3,s4,t2
    3318:	0106a883          	lw	a7,16(a3)
    331c:	0146ae03          	lw	t3,20(a3)
    3320:	007485b3          	add	a1,s1,t2
    3324:	01058a93          	add	s5,a1,16
    3328:	011cb0b3          	sltu	ra,s9,a7
    332c:	411c85b3          	sub	a1,s9,a7
    3330:	41cd8e33          	sub	t3,s11,t3
    3334:	401e0e33          	sub	t3,t3,ra
    3338:	0185b0b3          	sltu	ra,a1,s8
    333c:	41858bb3          	sub	s7,a1,s8
    3340:	40ce0b33          	sub	s6,t3,a2
    3344:	401b0b33          	sub	s6,s6,ra
    3348:	000d8693          	mv	a3,s11
    334c:	000c8613          	mv	a2,s9
    3350:	000b0593          	mv	a1,s6
    3354:	000b8513          	mv	a0,s7
    3358:	91dfd0ef          	jal	c74 <FStar_UInt64_gte_mask>
    335c:	00050d13          	mv	s10,a0
    3360:	000d8693          	mv	a3,s11
    3364:	000c8613          	mv	a2,s9
    3368:	000b0593          	mv	a1,s6
    336c:	000b8513          	mv	a0,s7
    3370:	8a1fd0ef          	jal	c10 <FStar_UInt64_eq_mask>
    3374:	00050413          	mv	s0,a0
    3378:	000d8693          	mv	a3,s11
    337c:	000c8613          	mv	a2,s9
    3380:	000b0593          	mv	a1,s6
    3384:	000b8513          	mv	a0,s7
    3388:	889fd0ef          	jal	c10 <FStar_UInt64_eq_mask>
    338c:	fff44e13          	not	t3,s0
    3390:	01cd75b3          	and	a1,s10,t3
    3394:	01857833          	and	a6,a0,s8
    3398:	0105ef33          	or	t5,a1,a6
    339c:	00000293          	li	t0,0
    33a0:	001f7413          	and	s0,t5,1
    33a4:	017aa023          	sw	s7,0(s5)
    33a8:	016aa223          	sw	s6,4(s5)
    33ac:	00599593          	sll	a1,s3,0x5
    33b0:	00b90733          	add	a4,s2,a1
    33b4:	01872b03          	lw	s6,24(a4)
    33b8:	01c72d03          	lw	s10,28(a4)
    33bc:	00ba03b3          	add	t2,s4,a1
    33c0:	0183a783          	lw	a5,24(t2)
    33c4:	01c3a803          	lw	a6,28(t2)
    33c8:	00b488b3          	add	a7,s1,a1
    33cc:	01888c13          	add	s8,a7,24
    33d0:	00fb30b3          	sltu	ra,s6,a5
    33d4:	40fb03b3          	sub	t2,s6,a5
    33d8:	410d06b3          	sub	a3,s10,a6
    33dc:	401686b3          	sub	a3,a3,ra
    33e0:	0083b0b3          	sltu	ra,t2,s0
    33e4:	40838cb3          	sub	s9,t2,s0
    33e8:	40568bb3          	sub	s7,a3,t0
    33ec:	401b8bb3          	sub	s7,s7,ra
    33f0:	000d0693          	mv	a3,s10
    33f4:	000b0613          	mv	a2,s6
    33f8:	000b8593          	mv	a1,s7
    33fc:	000c8513          	mv	a0,s9
    3400:	875fd0ef          	jal	c74 <FStar_UInt64_gte_mask>
    3404:	00050a93          	mv	s5,a0
    3408:	000d0693          	mv	a3,s10
    340c:	000b0613          	mv	a2,s6
    3410:	000b8593          	mv	a1,s7
    3414:	000c8513          	mv	a0,s9
    3418:	ff8fd0ef          	jal	c10 <FStar_UInt64_eq_mask>
    341c:	00050d93          	mv	s11,a0
    3420:	000d0693          	mv	a3,s10
    3424:	000b0613          	mv	a2,s6
    3428:	000b8593          	mv	a1,s7
    342c:	000c8513          	mv	a0,s9
    3430:	fe0fd0ef          	jal	c10 <FStar_UInt64_eq_mask>
    3434:	fffdc693          	not	a3,s11
    3438:	00daf3b3          	and	t2,s5,a3
    343c:	00857733          	and	a4,a0,s0
    3440:	00e3e333          	or	t1,t2,a4
    3444:	00000593          	li	a1,0
    3448:	00137413          	and	s0,t1,1
    344c:	019c2023          	sw	s9,0(s8)
    3450:	017c2223          	sw	s7,4(s8)
    3454:	00198993          	add	s3,s3,1
    3458:	00100f93          	li	t6,1
    345c:	d5f9ece3          	bltu	s3,t6,31b4 <bn_sub4+0x58>
    3460:	00040513          	mv	a0,s0
    3464:	00812403          	lw	s0,8(sp)
    3468:	00c12483          	lw	s1,12(sp)
    346c:	01012903          	lw	s2,16(sp)
    3470:	01412983          	lw	s3,20(sp)
    3474:	01812a03          	lw	s4,24(sp)
    3478:	01c12a83          	lw	s5,28(sp)
    347c:	02012b03          	lw	s6,32(sp)
    3480:	02412b83          	lw	s7,36(sp)
    3484:	02812c03          	lw	s8,40(sp)
    3488:	02c12c83          	lw	s9,44(sp)
    348c:	03012d03          	lw	s10,48(sp)
    3490:	03412d83          	lw	s11,52(sp)
    3494:	00412083          	lw	ra,4(sp)
    3498:	04010113          	add	sp,sp,64
    349c:	00008067          	ret

000034a0 <bn_mul4>:
    34a0:	00010f13          	mv	t5,sp
    34a4:	fd010113          	add	sp,sp,-48
    34a8:	01e12023          	sw	t5,0(sp)
    34ac:	00112223          	sw	ra,4(sp)
    34b0:	00812423          	sw	s0,8(sp)
    34b4:	00912623          	sw	s1,12(sp)
    34b8:	01212823          	sw	s2,16(sp)
    34bc:	01312a23          	sw	s3,20(sp)
    34c0:	01412c23          	sw	s4,24(sp)
    34c4:	01512e23          	sw	s5,28(sp)
    34c8:	03612023          	sw	s6,32(sp)
    34cc:	03712223          	sw	s7,36(sp)
    34d0:	00060a13          	mv	s4,a2
    34d4:	00058a93          	mv	s5,a1
    34d8:	00050913          	mv	s2,a0
    34dc:	00000593          	li	a1,0
    34e0:	04000613          	li	a2,64
    34e4:	00090513          	mv	a0,s2
    34e8:	fbdfc0ef          	jal	4a4 <memset>
    34ec:	00000993          	li	s3,0
    34f0:	00399713          	sll	a4,s3,0x3
    34f4:	00ea0f33          	add	t5,s4,a4
    34f8:	000f2483          	lw	s1,0(t5)
    34fc:	004f2403          	lw	s0,4(t5)
    3500:	00e90bb3          	add	s7,s2,a4
    3504:	00000593          	li	a1,0
    3508:	00000513          	li	a0,0
    350c:	00000b13          	li	s6,0
    3510:	005b1613          	sll	a2,s6,0x5
    3514:	00ca8e33          	add	t3,s5,a2
    3518:	000e2303          	lw	t1,0(t3)
    351c:	004e2283          	lw	t0,4(t3)
    3520:	00cb8833          	add	a6,s7,a2
    3524:	00058793          	mv	a5,a1
    3528:	00050713          	mv	a4,a0
    352c:	00040693          	mv	a3,s0
    3530:	00048613          	mv	a2,s1
    3534:	00028593          	mv	a1,t0
    3538:	00030513          	mv	a0,t1
    353c:	fd4fe0ef          	jal	1d10 <mul_wide_add2_u64>
    3540:	00058793          	mv	a5,a1
    3544:	00050713          	mv	a4,a0
    3548:	005b1813          	sll	a6,s6,0x5
    354c:	010a88b3          	add	a7,s5,a6
    3550:	0088a503          	lw	a0,8(a7)
    3554:	00c8a583          	lw	a1,12(a7)
    3558:	010b8833          	add	a6,s7,a6
    355c:	00880813          	add	a6,a6,8
    3560:	00040693          	mv	a3,s0
    3564:	00048613          	mv	a2,s1
    3568:	fa8fe0ef          	jal	1d10 <mul_wide_add2_u64>
    356c:	005b1693          	sll	a3,s6,0x5
    3570:	00da8e33          	add	t3,s5,a3
    3574:	010e2603          	lw	a2,16(t3)
    3578:	014e2383          	lw	t2,20(t3)
    357c:	00db88b3          	add	a7,s7,a3
    3580:	01088813          	add	a6,a7,16
    3584:	00058793          	mv	a5,a1
    3588:	00050713          	mv	a4,a0
    358c:	00040693          	mv	a3,s0
    3590:	00060513          	mv	a0,a2
    3594:	00048613          	mv	a2,s1
    3598:	00038593          	mv	a1,t2
    359c:	f74fe0ef          	jal	1d10 <mul_wide_add2_u64>
    35a0:	00058793          	mv	a5,a1
    35a4:	00050713          	mv	a4,a0
    35a8:	005b1693          	sll	a3,s6,0x5
    35ac:	00da83b3          	add	t2,s5,a3
    35b0:	0183a503          	lw	a0,24(t2)
    35b4:	01c3a583          	lw	a1,28(t2)
    35b8:	00db8633          	add	a2,s7,a3
    35bc:	01860813          	add	a6,a2,24
    35c0:	00040693          	mv	a3,s0
    35c4:	00048613          	mv	a2,s1
    35c8:	f48fe0ef          	jal	1d10 <mul_wide_add2_u64>
    35cc:	001b0b13          	add	s6,s6,1
    35d0:	00100f93          	li	t6,1
    35d4:	f3fb6ee3          	bltu	s6,t6,3510 <bn_mul4+0x70>
    35d8:	00399293          	sll	t0,s3,0x3
    35dc:	00590333          	add	t1,s2,t0
    35e0:	02a32023          	sw	a0,32(t1)
    35e4:	02b32223          	sw	a1,36(t1)
    35e8:	00198993          	add	s3,s3,1
    35ec:	00400f93          	li	t6,4
    35f0:	f1f9e0e3          	bltu	s3,t6,34f0 <bn_mul4+0x50>
    35f4:	00812403          	lw	s0,8(sp)
    35f8:	00c12483          	lw	s1,12(sp)
    35fc:	01012903          	lw	s2,16(sp)
    3600:	01412983          	lw	s3,20(sp)
    3604:	01812a03          	lw	s4,24(sp)
    3608:	01c12a83          	lw	s5,28(sp)
    360c:	02012b03          	lw	s6,32(sp)
    3610:	02412b83          	lw	s7,36(sp)
    3614:	00412083          	lw	ra,4(sp)
    3618:	03010113          	add	sp,sp,48
    361c:	00008067          	ret

00003620 <bn_sqr4>:
    3620:	00010f13          	mv	t5,sp
    3624:	ee010113          	add	sp,sp,-288
    3628:	01e12023          	sw	t5,0(sp)
    362c:	00112223          	sw	ra,4(sp)
    3630:	00812423          	sw	s0,8(sp)
    3634:	00912623          	sw	s1,12(sp)
    3638:	01212823          	sw	s2,16(sp)
    363c:	01312a23          	sw	s3,20(sp)
    3640:	01412c23          	sw	s4,24(sp)
    3644:	01512e23          	sw	s5,28(sp)
    3648:	03612023          	sw	s6,32(sp)
    364c:	03712223          	sw	s7,36(sp)
    3650:	03812423          	sw	s8,40(sp)
    3654:	03912623          	sw	s9,44(sp)
    3658:	03a12823          	sw	s10,48(sp)
    365c:	03b12a23          	sw	s11,52(sp)
    3660:	04b12c23          	sw	a1,88(sp)
    3664:	00050b93          	mv	s7,a0
    3668:	00000593          	li	a1,0
    366c:	04000613          	li	a2,64
    3670:	000b8513          	mv	a0,s7
    3674:	e31fc0ef          	jal	4a4 <memset>
    3678:	00000993          	li	s3,0
    367c:	05812403          	lw	s0,88(sp)
    3680:	00399393          	sll	t2,s3,0x3
    3684:	05812503          	lw	a0,88(sp)
    3688:	007505b3          	add	a1,a0,t2
    368c:	0005a903          	lw	s2,0(a1)
    3690:	0045a483          	lw	s1,4(a1)
    3694:	007b8a33          	add	s4,s7,t2
    3698:	00000793          	li	a5,0
    369c:	00000713          	li	a4,0
    36a0:	00000a93          	li	s5,0
    36a4:	0029d513          	srl	a0,s3,0x2
    36a8:	0aaafc63          	bgeu	s5,a0,3760 <bn_sqr4+0x140>
    36ac:	005a9813          	sll	a6,s5,0x5
    36b0:	010408b3          	add	a7,s0,a6
    36b4:	0008a503          	lw	a0,0(a7)
    36b8:	0048a583          	lw	a1,4(a7)
    36bc:	010a0833          	add	a6,s4,a6
    36c0:	00048693          	mv	a3,s1
    36c4:	00090613          	mv	a2,s2
    36c8:	e48fe0ef          	jal	1d10 <mul_wide_add2_u64>
    36cc:	00058793          	mv	a5,a1
    36d0:	00050713          	mv	a4,a0
    36d4:	005a9613          	sll	a2,s5,0x5
    36d8:	00c40f33          	add	t5,s0,a2
    36dc:	008f2503          	lw	a0,8(t5)
    36e0:	00cf2583          	lw	a1,12(t5)
    36e4:	00ca0633          	add	a2,s4,a2
    36e8:	00860813          	add	a6,a2,8
    36ec:	00048693          	mv	a3,s1
    36f0:	00090613          	mv	a2,s2
    36f4:	e1cfe0ef          	jal	1d10 <mul_wide_add2_u64>
    36f8:	00058793          	mv	a5,a1
    36fc:	00050713          	mv	a4,a0
    3700:	005a9813          	sll	a6,s5,0x5
    3704:	010408b3          	add	a7,s0,a6
    3708:	0108a503          	lw	a0,16(a7)
    370c:	0148a583          	lw	a1,20(a7)
    3710:	010a0833          	add	a6,s4,a6
    3714:	01080813          	add	a6,a6,16
    3718:	00048693          	mv	a3,s1
    371c:	00090613          	mv	a2,s2
    3720:	df0fe0ef          	jal	1d10 <mul_wide_add2_u64>
    3724:	00058793          	mv	a5,a1
    3728:	00050713          	mv	a4,a0
    372c:	005a9613          	sll	a2,s5,0x5
    3730:	00c40eb3          	add	t4,s0,a2
    3734:	018ea503          	lw	a0,24(t4)
    3738:	01cea583          	lw	a1,28(t4)
    373c:	00ca0633          	add	a2,s4,a2
    3740:	01860813          	add	a6,a2,24
    3744:	00048693          	mv	a3,s1
    3748:	00090613          	mv	a2,s2
    374c:	dc4fe0ef          	jal	1d10 <mul_wide_add2_u64>
    3750:	00058793          	mv	a5,a1
    3754:	00050713          	mv	a4,a0
    3758:	001a8a93          	add	s5,s5,1
    375c:	f49ff06f          	j	36a4 <bn_sqr4+0x84>
    3760:	00251a93          	sll	s5,a0,0x2
    3764:	033afa63          	bgeu	s5,s3,3798 <bn_sqr4+0x178>
    3768:	003a9f13          	sll	t5,s5,0x3
    376c:	01e40eb3          	add	t4,s0,t5
    3770:	000ea503          	lw	a0,0(t4)
    3774:	004ea583          	lw	a1,4(t4)
    3778:	01ea0833          	add	a6,s4,t5
    377c:	00048693          	mv	a3,s1
    3780:	00090613          	mv	a2,s2
    3784:	d8cfe0ef          	jal	1d10 <mul_wide_add2_u64>
    3788:	00058793          	mv	a5,a1
    378c:	00050713          	mv	a4,a0
    3790:	001a8a93          	add	s5,s5,1
    3794:	fd1ff06f          	j	3764 <bn_sqr4+0x144>
    3798:	01398333          	add	t1,s3,s3
    379c:	00331813          	sll	a6,t1,0x3
    37a0:	010b8333          	add	t1,s7,a6
    37a4:	00e32023          	sw	a4,0(t1)
    37a8:	00f32223          	sw	a5,4(t1)
    37ac:	00198993          	add	s3,s3,1
    37b0:	00400f93          	li	t6,4
    37b4:	edf9e4e3          	bltu	s3,t6,367c <bn_sqr4+0x5c>
    37b8:	00800513          	li	a0,8
    37bc:	000b8693          	mv	a3,s7
    37c0:	000b8613          	mv	a2,s7
    37c4:	000b8593          	mv	a1,s7
    37c8:	f29fe0ef          	jal	26f0 <bn_add_eq_len_u64>
    37cc:	00000793          	li	a5,0
    37d0:	00000713          	li	a4,0
    37d4:	08e12823          	sw	a4,144(sp)
    37d8:	08f12a23          	sw	a5,148(sp)
    37dc:	08e12c23          	sw	a4,152(sp)
    37e0:	08f12e23          	sw	a5,156(sp)
    37e4:	0ae12023          	sw	a4,160(sp)
    37e8:	0af12223          	sw	a5,164(sp)
    37ec:	0ae12423          	sw	a4,168(sp)
    37f0:	0af12623          	sw	a5,172(sp)
    37f4:	0ae12823          	sw	a4,176(sp)
    37f8:	0af12a23          	sw	a5,180(sp)
    37fc:	0ae12c23          	sw	a4,184(sp)
    3800:	0af12e23          	sw	a5,188(sp)
    3804:	0ce12023          	sw	a4,192(sp)
    3808:	0cf12223          	sw	a5,196(sp)
    380c:	0ce12423          	sw	a4,200(sp)
    3810:	0cf12623          	sw	a5,204(sp)
    3814:	00000c13          	li	s8,0
    3818:	003c1293          	sll	t0,s8,0x3
    381c:	05812383          	lw	t2,88(sp)
    3820:	00538f33          	add	t5,t2,t0
    3824:	000f2b03          	lw	s6,0(t5)
    3828:	004f2603          	lw	a2,4(t5)
    382c:	04c12623          	sw	a2,76(sp)
    3830:	03612c23          	sw	s6,56(sp)
    3834:	04c12823          	sw	a2,80(sp)
    3838:	08010713          	add	a4,sp,128
    383c:	04e12e23          	sw	a4,92(sp)
    3840:	000b0913          	mv	s2,s6
    3844:	00000993          	li	s3,0
    3848:	00098493          	mv	s1,s3
    384c:	00090413          	mv	s0,s2
    3850:	00048c93          	mv	s9,s1
    3854:	00040a93          	mv	s5,s0
    3858:	000c8d13          	mv	s10,s9
    385c:	000a8a13          	mv	s4,s5
    3860:	20001fb7          	lui	t6,0x20001
    3864:	e08fa603          	lw	a2,-504(t6) # 20000e08 <FStar_UInt128_u32_32>
    3868:	05012583          	lw	a1,80(sp)
    386c:	000b0513          	mv	a0,s6
    3870:	cc9fc0ef          	jal	538 <i64_shr>
    3874:	028502b3          	mul	t0,a0,s0
    3878:	02853f33          	mulhu	t5,a0,s0
    387c:	02950733          	mul	a4,a0,s1
    3880:	00ef0e33          	add	t3,t5,a4
    3884:	02858533          	mul	a0,a1,s0
    3888:	00ae04b3          	add	s1,t3,a0
    388c:	00028413          	mv	s0,t0
    3890:	034a8533          	mul	a0,s5,s4
    3894:	034abe33          	mulhu	t3,s5,s4
    3898:	03aa86b3          	mul	a3,s5,s10
    389c:	00de0f33          	add	t5,t3,a3
    38a0:	034c83b3          	mul	t2,s9,s4
    38a4:	007f05b3          	add	a1,t5,t2
    38a8:	20001fb7          	lui	t6,0x20001
    38ac:	e08fa603          	lw	a2,-504(t6) # 20000e08 <FStar_UInt128_u32_32>
    38b0:	c89fc0ef          	jal	538 <i64_shr>
    38b4:	00a40a33          	add	s4,s0,a0
    38b8:	00aa30b3          	sltu	ra,s4,a0
    38bc:	00b483b3          	add	t2,s1,a1
    38c0:	001383b3          	add	t2,t2,ra
    38c4:	00000a93          	li	s5,0
    38c8:	000b0e93          	mv	t4,s6
    38cc:	03812683          	lw	a3,56(sp)
    38d0:	02de8433          	mul	s0,t4,a3
    38d4:	02deb733          	mulhu	a4,t4,a3
    38d8:	00000493          	li	s1,0
    38dc:	20001fb7          	lui	t6,0x20001
    38e0:	e08fa603          	lw	a2,-504(t6) # 20000e08 <FStar_UInt128_u32_32>
    38e4:	04c12583          	lw	a1,76(sp)
    38e8:	03812503          	lw	a0,56(sp)
    38ec:	c4dfc0ef          	jal	538 <i64_shr>
    38f0:	02a908b3          	mul	a7,s2,a0
    38f4:	02a93833          	mulhu	a6,s2,a0
    38f8:	02b90eb3          	mul	t4,s2,a1
    38fc:	01d803b3          	add	t2,a6,t4
    3900:	02a98533          	mul	a0,s3,a0
    3904:	00a38e33          	add	t3,t2,a0
    3908:	01488533          	add	a0,a7,s4
    390c:	014530b3          	sltu	ra,a0,s4
    3910:	015e05b3          	add	a1,t3,s5
    3914:	001585b3          	add	a1,a1,ra
    3918:	20001fb7          	lui	t6,0x20001
    391c:	e08fa603          	lw	a2,-504(t6) # 20000e08 <FStar_UInt128_u32_32>
    3920:	bc1fc0ef          	jal	4e0 <i64_shl>
    3924:	00a40633          	add	a2,s0,a0
    3928:	00a630b3          	sltu	ra,a2,a0
    392c:	00b486b3          	add	a3,s1,a1
    3930:	001686b3          	add	a3,a3,ra
    3934:	0cc12823          	sw	a2,208(sp)
    3938:	0cd12a23          	sw	a3,212(sp)
    393c:	03812a03          	lw	s4,56(sp)
    3940:	00000a93          	li	s5,0
    3944:	000b0913          	mv	s2,s6
    3948:	00000993          	li	s3,0
    394c:	05512223          	sw	s5,68(sp)
    3950:	000a0d13          	mv	s10,s4
    3954:	03312e23          	sw	s3,60(sp)
    3958:	00090c93          	mv	s9,s2
    395c:	04412783          	lw	a5,68(sp)
    3960:	04f12423          	sw	a5,72(sp)
    3964:	000d0413          	mv	s0,s10
    3968:	03c12583          	lw	a1,60(sp)
    396c:	04b12a23          	sw	a1,84(sp)
    3970:	000c8493          	mv	s1,s9
    3974:	04812e03          	lw	t3,72(sp)
    3978:	05c12023          	sw	t3,64(sp)
    397c:	00040d93          	mv	s11,s0
    3980:	20001fb7          	lui	t6,0x20001
    3984:	e08fa603          	lw	a2,-504(t6) # 20000e08 <FStar_UInt128_u32_32>
    3988:	05012583          	lw	a1,80(sp)
    398c:	000b0513          	mv	a0,s6
    3990:	ba9fc0ef          	jal	538 <i64_shr>
    3994:	04812683          	lw	a3,72(sp)
    3998:	02850633          	mul	a2,a0,s0
    399c:	02853e33          	mulhu	t3,a0,s0
    39a0:	02d50333          	mul	t1,a0,a3
    39a4:	006e0833          	add	a6,t3,t1
    39a8:	028588b3          	mul	a7,a1,s0
    39ac:	01180433          	add	s0,a6,a7
    39b0:	04c12423          	sw	a2,72(sp)
    39b4:	05412583          	lw	a1,84(sp)
    39b8:	03b48533          	mul	a0,s1,s11
    39bc:	03b4b8b3          	mulhu	a7,s1,s11
    39c0:	04012f03          	lw	t5,64(sp)
    39c4:	03e48e33          	mul	t3,s1,t5
    39c8:	01c887b3          	add	a5,a7,t3
    39cc:	03b58f33          	mul	t5,a1,s11
    39d0:	01e785b3          	add	a1,a5,t5
    39d4:	20001fb7          	lui	t6,0x20001
    39d8:	e08fa603          	lw	a2,-504(t6) # 20000e08 <FStar_UInt128_u32_32>
    39dc:	b5dfc0ef          	jal	538 <i64_shr>
    39e0:	04812683          	lw	a3,72(sp)
    39e4:	00a684b3          	add	s1,a3,a0
    39e8:	00a4b0b3          	sltu	ra,s1,a0
    39ec:	00b40833          	add	a6,s0,a1
    39f0:	00180833          	add	a6,a6,ra
    39f4:	00000d93          	li	s11,0
    39f8:	20001fb7          	lui	t6,0x20001
    39fc:	e08fa603          	lw	a2,-504(t6) # 20000e08 <FStar_UInt128_u32_32>
    3a00:	05012583          	lw	a1,80(sp)
    3a04:	000b0513          	mv	a0,s6
    3a08:	b31fc0ef          	jal	538 <i64_shr>
    3a0c:	04b12023          	sw	a1,64(sp)
    3a10:	00050413          	mv	s0,a0
    3a14:	20001fb7          	lui	t6,0x20001
    3a18:	e08fa603          	lw	a2,-504(t6) # 20000e08 <FStar_UInt128_u32_32>
    3a1c:	04c12583          	lw	a1,76(sp)
    3a20:	03812503          	lw	a0,56(sp)
    3a24:	b15fc0ef          	jal	538 <i64_shr>
    3a28:	02a403b3          	mul	t2,s0,a0
    3a2c:	02a43333          	mulhu	t1,s0,a0
    3a30:	02b40733          	mul	a4,s0,a1
    3a34:	00e30f33          	add	t5,t1,a4
    3a38:	04012303          	lw	t1,64(sp)
    3a3c:	02a30833          	mul	a6,t1,a0
    3a40:	010f0433          	add	s0,t5,a6
    3a44:	04712023          	sw	t2,64(sp)
    3a48:	20001fb7          	lui	t6,0x20001
    3a4c:	e08fa603          	lw	a2,-504(t6) # 20000e08 <FStar_UInt128_u32_32>
    3a50:	05012583          	lw	a1,80(sp)
    3a54:	000b0513          	mv	a0,s6
    3a58:	ae1fc0ef          	jal	538 <i64_shr>
    3a5c:	034503b3          	mul	t2,a0,s4
    3a60:	034532b3          	mulhu	t0,a0,s4
    3a64:	03550733          	mul	a4,a0,s5
    3a68:	00e28633          	add	a2,t0,a4
    3a6c:	03458eb3          	mul	t4,a1,s4
    3a70:	01d60a33          	add	s4,a2,t4
    3a74:	00038a93          	mv	s5,t2
    3a78:	03a90533          	mul	a0,s2,s10
    3a7c:	03a935b3          	mulhu	a1,s2,s10
    3a80:	04412e83          	lw	t4,68(sp)
    3a84:	03d90633          	mul	a2,s2,t4
    3a88:	00c586b3          	add	a3,a1,a2
    3a8c:	03a98333          	mul	t1,s3,s10
    3a90:	006685b3          	add	a1,a3,t1
    3a94:	20001fb7          	lui	t6,0x20001
    3a98:	e08fa603          	lw	a2,-504(t6) # 20000e08 <FStar_UInt128_u32_32>
    3a9c:	a9dfc0ef          	jal	538 <i64_shr>
    3aa0:	00aa8fb3          	add	t6,s5,a0
    3aa4:	00afb0b3          	sltu	ra,t6,a0
    3aa8:	00ba05b3          	add	a1,s4,a1
    3aac:	001585b3          	add	a1,a1,ra
    3ab0:	000f8513          	mv	a0,t6
    3ab4:	20001fb7          	lui	t6,0x20001
    3ab8:	e08fa603          	lw	a2,-504(t6) # 20000e08 <FStar_UInt128_u32_32>
    3abc:	a7dfc0ef          	jal	538 <i64_shr>
    3ac0:	04012883          	lw	a7,64(sp)
    3ac4:	00a88933          	add	s2,a7,a0
    3ac8:	00a930b3          	sltu	ra,s2,a0
    3acc:	00b40433          	add	s0,s0,a1
    3ad0:	00140433          	add	s0,s0,ra
    3ad4:	20001fb7          	lui	t6,0x20001
    3ad8:	e08fa603          	lw	a2,-504(t6) # 20000e08 <FStar_UInt128_u32_32>
    3adc:	04c12583          	lw	a1,76(sp)
    3ae0:	03812503          	lw	a0,56(sp)
    3ae4:	a55fc0ef          	jal	538 <i64_shr>
    3ae8:	02ac8333          	mul	t1,s9,a0
    3aec:	02acb2b3          	mulhu	t0,s9,a0
    3af0:	02bc8f33          	mul	t5,s9,a1
    3af4:	01e285b3          	add	a1,t0,t5
    3af8:	03c12803          	lw	a6,60(sp)
    3afc:	02a807b3          	mul	a5,a6,a0
    3b00:	00f58eb3          	add	t4,a1,a5
    3b04:	00930533          	add	a0,t1,s1
    3b08:	009530b3          	sltu	ra,a0,s1
    3b0c:	01be85b3          	add	a1,t4,s11
    3b10:	001585b3          	add	a1,a1,ra
    3b14:	20001fb7          	lui	t6,0x20001
    3b18:	e08fa603          	lw	a2,-504(t6) # 20000e08 <FStar_UInt128_u32_32>
    3b1c:	a1dfc0ef          	jal	538 <i64_shr>
    3b20:	00a90933          	add	s2,s2,a0
    3b24:	00a930b3          	sltu	ra,s2,a0
    3b28:	00b404b3          	add	s1,s0,a1
    3b2c:	001484b3          	add	s1,s1,ra
    3b30:	0d212c23          	sw	s2,216(sp)
    3b34:	0c912e23          	sw	s1,220(sp)
    3b38:	05c12283          	lw	t0,92(sp)
    3b3c:	00000013          	nop
    3b40:	0d012f83          	lw	t6,208(sp)
    3b44:	01f2a023          	sw	t6,0(t0)
    3b48:	0d412f83          	lw	t6,212(sp)
    3b4c:	01f2a223          	sw	t6,4(t0)
    3b50:	0d812f83          	lw	t6,216(sp)
    3b54:	01f2a423          	sw	t6,8(t0)
    3b58:	0dc12f83          	lw	t6,220(sp)
    3b5c:	01f2a623          	sw	t6,12(t0)
    3b60:	00000013          	nop
    3b64:	00000013          	nop
    3b68:	08012f83          	lw	t6,128(sp)
    3b6c:	07f12023          	sw	t6,96(sp)
    3b70:	08412f83          	lw	t6,132(sp)
    3b74:	07f12223          	sw	t6,100(sp)
    3b78:	08812f83          	lw	t6,136(sp)
    3b7c:	07f12423          	sw	t6,104(sp)
    3b80:	08c12f83          	lw	t6,140(sp)
    3b84:	07f12623          	sw	t6,108(sp)
    3b88:	00000013          	nop
    3b8c:	06010613          	add	a2,sp,96
    3b90:	07010413          	add	s0,sp,112
    3b94:	00000013          	nop
    3b98:	00062f83          	lw	t6,0(a2)
    3b9c:	0ff12023          	sw	t6,224(sp)
    3ba0:	00462f83          	lw	t6,4(a2)
    3ba4:	0ff12223          	sw	t6,228(sp)
    3ba8:	00862f83          	lw	t6,8(a2)
    3bac:	0ff12423          	sw	t6,232(sp)
    3bb0:	00c62f83          	lw	t6,12(a2)
    3bb4:	0ff12623          	sw	t6,236(sp)
    3bb8:	00000013          	nop
    3bbc:	20001fb7          	lui	t6,0x20001
    3bc0:	e04faf03          	lw	t5,-508(t6) # 20000e04 <FStar_UInt128_u32_64>
    3bc4:	04000f93          	li	t6,64
    3bc8:	0befea63          	bltu	t6,t5,3c7c <bn_sqr4+0x65c>
    3bcc:	04000513          	li	a0,64
    3bd0:	0e010e13          	add	t3,sp,224
    3bd4:	0f010993          	add	s3,sp,240
    3bd8:	00000013          	nop
    3bdc:	000e2f83          	lw	t6,0(t3)
    3be0:	11f12023          	sw	t6,256(sp)
    3be4:	004e2f83          	lw	t6,4(t3)
    3be8:	11f12223          	sw	t6,260(sp)
    3bec:	008e2f83          	lw	t6,8(t3)
    3bf0:	11f12423          	sw	t6,264(sp)
    3bf4:	00ce2f83          	lw	t6,12(t3)
    3bf8:	11f12623          	sw	t6,268(sp)
    3bfc:	00000013          	nop
    3c00:	41e50633          	sub	a2,a0,t5
    3c04:	00048593          	mv	a1,s1
    3c08:	00090513          	mv	a0,s2
    3c0c:	92dfc0ef          	jal	538 <i64_shr>
    3c10:	10a12823          	sw	a0,272(sp)
    3c14:	10b12a23          	sw	a1,276(sp)
    3c18:	00000513          	li	a0,0
    3c1c:	00000393          	li	t2,0
    3c20:	10712c23          	sw	t2,280(sp)
    3c24:	10a12e23          	sw	a0,284(sp)
    3c28:	00000013          	nop
    3c2c:	11012f83          	lw	t6,272(sp)
    3c30:	01f9a023          	sw	t6,0(s3)
    3c34:	11412f83          	lw	t6,276(sp)
    3c38:	01f9a223          	sw	t6,4(s3)
    3c3c:	11812f83          	lw	t6,280(sp)
    3c40:	01f9a423          	sw	t6,8(s3)
    3c44:	11c12f83          	lw	t6,284(sp)
    3c48:	01f9a623          	sw	t6,12(s3)
    3c4c:	00000013          	nop
    3c50:	00000013          	nop
    3c54:	0f012f83          	lw	t6,240(sp)
    3c58:	01f42023          	sw	t6,0(s0)
    3c5c:	0f412f83          	lw	t6,244(sp)
    3c60:	01f42223          	sw	t6,4(s0)
    3c64:	0f812f83          	lw	t6,248(sp)
    3c68:	01f42423          	sw	t6,8(s0)
    3c6c:	0fc12f83          	lw	t6,252(sp)
    3c70:	01f42623          	sw	t6,12(s0)
    3c74:	00000013          	nop
    3c78:	0e80006f          	j	3d60 <bn_sqr4+0x740>
    3c7c:	04000a13          	li	s4,64
    3c80:	0e010793          	add	a5,sp,224
    3c84:	0d010993          	add	s3,sp,208
    3c88:	00000013          	nop
    3c8c:	0007af83          	lw	t6,0(a5)
    3c90:	11f12023          	sw	t6,256(sp)
    3c94:	0047af83          	lw	t6,4(a5)
    3c98:	11f12223          	sw	t6,260(sp)
    3c9c:	0087af83          	lw	t6,8(a5)
    3ca0:	11f12423          	sw	t6,264(sp)
    3ca4:	00c7af83          	lw	t6,12(a5)
    3ca8:	11f12623          	sw	t6,268(sp)
    3cac:	00000013          	nop
    3cb0:	10012503          	lw	a0,256(sp)
    3cb4:	10412583          	lw	a1,260(sp)
    3cb8:	04000613          	li	a2,64
    3cbc:	87dfc0ef          	jal	538 <i64_shr>
    3cc0:	00058a93          	mv	s5,a1
    3cc4:	00050b13          	mv	s6,a0
    3cc8:	20001fb7          	lui	t6,0x20001
    3ccc:	e04fa383          	lw	t2,-508(t6) # 20000e04 <FStar_UInt128_u32_64>
    3cd0:	fc038613          	add	a2,t2,-64
    3cd4:	00048593          	mv	a1,s1
    3cd8:	00090513          	mv	a0,s2
    3cdc:	805fc0ef          	jal	4e0 <i64_shl>
    3ce0:	00ab02b3          	add	t0,s6,a0
    3ce4:	00a2b0b3          	sltu	ra,t0,a0
    3ce8:	00ba8333          	add	t1,s5,a1
    3cec:	00130333          	add	t1,t1,ra
    3cf0:	10512823          	sw	t0,272(sp)
    3cf4:	10612a23          	sw	t1,276(sp)
    3cf8:	10812503          	lw	a0,264(sp)
    3cfc:	10c12583          	lw	a1,268(sp)
    3d00:	000a0613          	mv	a2,s4
    3d04:	835fc0ef          	jal	538 <i64_shr>
    3d08:	10a12c23          	sw	a0,280(sp)
    3d0c:	10b12e23          	sw	a1,284(sp)
    3d10:	00000013          	nop
    3d14:	11012f83          	lw	t6,272(sp)
    3d18:	01f9a023          	sw	t6,0(s3)
    3d1c:	11412f83          	lw	t6,276(sp)
    3d20:	01f9a223          	sw	t6,4(s3)
    3d24:	11812f83          	lw	t6,280(sp)
    3d28:	01f9a423          	sw	t6,8(s3)
    3d2c:	11c12f83          	lw	t6,284(sp)
    3d30:	01f9a623          	sw	t6,12(s3)
    3d34:	00000013          	nop
    3d38:	00000013          	nop
    3d3c:	0d012f83          	lw	t6,208(sp)
    3d40:	01f42023          	sw	t6,0(s0)
    3d44:	0d412f83          	lw	t6,212(sp)
    3d48:	01f42223          	sw	t6,4(s0)
    3d4c:	0d812f83          	lw	t6,216(sp)
    3d50:	01f42423          	sw	t6,8(s0)
    3d54:	0dc12f83          	lw	t6,220(sp)
    3d58:	01f42623          	sw	t6,12(s0)
    3d5c:	00000013          	nop
    3d60:	07010293          	add	t0,sp,112
    3d64:	00000013          	nop
    3d68:	0002af83          	lw	t6,0(t0)
    3d6c:	0df12823          	sw	t6,208(sp)
    3d70:	0042af83          	lw	t6,4(t0)
    3d74:	0df12a23          	sw	t6,212(sp)
    3d78:	0082af83          	lw	t6,8(t0)
    3d7c:	0df12c23          	sw	t6,216(sp)
    3d80:	00c2af83          	lw	t6,12(t0)
    3d84:	0df12e23          	sw	t6,220(sp)
    3d88:	00000013          	nop
    3d8c:	0d012e03          	lw	t3,208(sp)
    3d90:	0d412e83          	lw	t4,212(sp)
    3d94:	06010393          	add	t2,sp,96
    3d98:	00000013          	nop
    3d9c:	0003af83          	lw	t6,0(t2)
    3da0:	0df12823          	sw	t6,208(sp)
    3da4:	0043af83          	lw	t6,4(t2)
    3da8:	0df12a23          	sw	t6,212(sp)
    3dac:	0083af83          	lw	t6,8(t2)
    3db0:	0df12c23          	sw	t6,216(sp)
    3db4:	00c3af83          	lw	t6,12(t2)
    3db8:	0df12e23          	sw	t6,220(sp)
    3dbc:	00000013          	nop
    3dc0:	0d012703          	lw	a4,208(sp)
    3dc4:	0d412783          	lw	a5,212(sp)
    3dc8:	09010313          	add	t1,sp,144
    3dcc:	004c1813          	sll	a6,s8,0x4
    3dd0:	010302b3          	add	t0,t1,a6
    3dd4:	00e2a023          	sw	a4,0(t0)
    3dd8:	00f2a223          	sw	a5,4(t0)
    3ddc:	09810f13          	add	t5,sp,152
    3de0:	010f08b3          	add	a7,t5,a6
    3de4:	01c8a023          	sw	t3,0(a7)
    3de8:	01d8a223          	sw	t4,4(a7)
    3dec:	001c0c13          	add	s8,s8,1
    3df0:	00400f93          	li	t6,4
    3df4:	a3fc62e3          	bltu	s8,t6,3818 <bn_sqr4+0x1f8>
    3df8:	00800513          	li	a0,8
    3dfc:	09010613          	add	a2,sp,144
    3e00:	000b8693          	mv	a3,s7
    3e04:	000b8593          	mv	a1,s7
    3e08:	8e9fe0ef          	jal	26f0 <bn_add_eq_len_u64>
    3e0c:	00812403          	lw	s0,8(sp)
    3e10:	00c12483          	lw	s1,12(sp)
    3e14:	01012903          	lw	s2,16(sp)
    3e18:	01412983          	lw	s3,20(sp)
    3e1c:	01812a03          	lw	s4,24(sp)
    3e20:	01c12a83          	lw	s5,28(sp)
    3e24:	02012b03          	lw	s6,32(sp)
    3e28:	02412b83          	lw	s7,36(sp)
    3e2c:	02812c03          	lw	s8,40(sp)
    3e30:	02c12c83          	lw	s9,44(sp)
    3e34:	03012d03          	lw	s10,48(sp)
    3e38:	03412d83          	lw	s11,52(sp)
    3e3c:	00412083          	lw	ra,4(sp)
    3e40:	12010113          	add	sp,sp,288
    3e44:	00008067          	ret

00003e48 <bn_to_bytes_be4>:
    3e48:	00010f13          	mv	t5,sp
    3e4c:	fc010113          	add	sp,sp,-64
    3e50:	01e12023          	sw	t5,0(sp)
    3e54:	00112223          	sw	ra,4(sp)
    3e58:	00812423          	sw	s0,8(sp)
    3e5c:	00912623          	sw	s1,12(sp)
    3e60:	01212823          	sw	s2,16(sp)
    3e64:	00058413          	mv	s0,a1
    3e68:	00050493          	mv	s1,a0
    3e6c:	00000713          	li	a4,0
    3e70:	00e10c23          	sb	a4,24(sp)
    3e74:	00000713          	li	a4,0
    3e78:	00e10ca3          	sb	a4,25(sp)
    3e7c:	00000e93          	li	t4,0
    3e80:	01d10d23          	sb	t4,26(sp)
    3e84:	00000813          	li	a6,0
    3e88:	01010da3          	sb	a6,27(sp)
    3e8c:	00000813          	li	a6,0
    3e90:	01010e23          	sb	a6,28(sp)
    3e94:	00000513          	li	a0,0
    3e98:	00a10ea3          	sb	a0,29(sp)
    3e9c:	00000393          	li	t2,0
    3ea0:	00710f23          	sb	t2,30(sp)
    3ea4:	00000793          	li	a5,0
    3ea8:	00f10fa3          	sb	a5,31(sp)
    3eac:	00000313          	li	t1,0
    3eb0:	02610023          	sb	t1,32(sp)
    3eb4:	00000e13          	li	t3,0
    3eb8:	03c100a3          	sb	t3,33(sp)
    3ebc:	00000e93          	li	t4,0
    3ec0:	03d10123          	sb	t4,34(sp)
    3ec4:	00000893          	li	a7,0
    3ec8:	031101a3          	sb	a7,35(sp)
    3ecc:	00000893          	li	a7,0
    3ed0:	03110223          	sb	a7,36(sp)
    3ed4:	00000313          	li	t1,0
    3ed8:	026102a3          	sb	t1,37(sp)
    3edc:	00000893          	li	a7,0
    3ee0:	03110323          	sb	a7,38(sp)
    3ee4:	00000713          	li	a4,0
    3ee8:	02e103a3          	sb	a4,39(sp)
    3eec:	00000393          	li	t2,0
    3ef0:	02710423          	sb	t2,40(sp)
    3ef4:	00000e93          	li	t4,0
    3ef8:	03d104a3          	sb	t4,41(sp)
    3efc:	00000813          	li	a6,0
    3f00:	03010523          	sb	a6,42(sp)
    3f04:	00000293          	li	t0,0
    3f08:	025105a3          	sb	t0,43(sp)
    3f0c:	00000613          	li	a2,0
    3f10:	02c10623          	sb	a2,44(sp)
    3f14:	00000893          	li	a7,0
    3f18:	031106a3          	sb	a7,45(sp)
    3f1c:	00000513          	li	a0,0
    3f20:	02a10723          	sb	a0,46(sp)
    3f24:	00000f13          	li	t5,0
    3f28:	03e107a3          	sb	t5,47(sp)
    3f2c:	00000513          	li	a0,0
    3f30:	02a10823          	sb	a0,48(sp)
    3f34:	00000593          	li	a1,0
    3f38:	02b108a3          	sb	a1,49(sp)
    3f3c:	00000293          	li	t0,0
    3f40:	02510923          	sb	t0,50(sp)
    3f44:	00000593          	li	a1,0
    3f48:	02b109a3          	sb	a1,51(sp)
    3f4c:	00000613          	li	a2,0
    3f50:	02c10a23          	sb	a2,52(sp)
    3f54:	00000693          	li	a3,0
    3f58:	02d10aa3          	sb	a3,53(sp)
    3f5c:	00000e13          	li	t3,0
    3f60:	03c10b23          	sb	t3,54(sp)
    3f64:	00000f13          	li	t5,0
    3f68:	03e10ba3          	sb	t5,55(sp)
    3f6c:	00000913          	li	s2,0
    3f70:	00400513          	li	a0,4
    3f74:	412503b3          	sub	t2,a0,s2
    3f78:	00339f13          	sll	t5,t2,0x3
    3f7c:	01e405b3          	add	a1,s0,t5
    3f80:	ff85a383          	lw	t2,-8(a1)
    3f84:	ffc5a503          	lw	a0,-4(a1)
    3f88:	0183d593          	srl	a1,t2,0x18
    3f8c:	0083de93          	srl	t4,t2,0x8
    3f90:	00010fb7          	lui	t6,0x10
    3f94:	f00f8f93          	add	t6,t6,-256 # ff00 <_erodata+0x6880>
    3f98:	01fef833          	and	a6,t4,t6
    3f9c:	0105e5b3          	or	a1,a1,a6
    3fa0:	00839e13          	sll	t3,t2,0x8
    3fa4:	00ff0fb7          	lui	t6,0xff0
    3fa8:	01fe7633          	and	a2,t3,t6
    3fac:	00c5e2b3          	or	t0,a1,a2
    3fb0:	01839793          	sll	a5,t2,0x18
    3fb4:	ff000fb7          	lui	t6,0xff000
    3fb8:	01f7f333          	and	t1,a5,t6
    3fbc:	0062e2b3          	or	t0,t0,t1
    3fc0:	01855613          	srl	a2,a0,0x18
    3fc4:	00855e13          	srl	t3,a0,0x8
    3fc8:	00010fb7          	lui	t6,0x10
    3fcc:	f00f8f93          	add	t6,t6,-256 # ff00 <_erodata+0x6880>
    3fd0:	01fe73b3          	and	t2,t3,t6
    3fd4:	007667b3          	or	a5,a2,t2
    3fd8:	00851713          	sll	a4,a0,0x8
    3fdc:	00ff0fb7          	lui	t6,0xff0
    3fe0:	01f776b3          	and	a3,a4,t6
    3fe4:	00d7e6b3          	or	a3,a5,a3
    3fe8:	01851313          	sll	t1,a0,0x18
    3fec:	ff000fb7          	lui	t6,0xff000
    3ff0:	01f37333          	and	t1,t1,t6
    3ff4:	0066e333          	or	t1,a3,t1
    3ff8:	00391f13          	sll	t5,s2,0x3
    3ffc:	01e48533          	add	a0,s1,t5
    4000:	02612c23          	sw	t1,56(sp)
    4004:	02512e23          	sw	t0,60(sp)
    4008:	03810593          	add	a1,sp,56
    400c:	00800613          	li	a2,8
    4010:	b58fc0ef          	jal	368 <memcpy>
    4014:	00190913          	add	s2,s2,1
    4018:	00400f93          	li	t6,4
    401c:	f5f96ae3          	bltu	s2,t6,3f70 <bn_to_bytes_be4+0x128>
    4020:	00812403          	lw	s0,8(sp)
    4024:	00c12483          	lw	s1,12(sp)
    4028:	01012903          	lw	s2,16(sp)
    402c:	00412083          	lw	ra,4(sp)
    4030:	04010113          	add	sp,sp,64
    4034:	00008067          	ret

00004038 <bn_from_bytes_be4>:
    4038:	00010f13          	mv	t5,sp
    403c:	fe010113          	add	sp,sp,-32
    4040:	01e12023          	sw	t5,0(sp)
    4044:	00112223          	sw	ra,4(sp)
    4048:	00812423          	sw	s0,8(sp)
    404c:	00912623          	sw	s1,12(sp)
    4050:	01212823          	sw	s2,16(sp)
    4054:	00058913          	mv	s2,a1
    4058:	00050413          	mv	s0,a0
    405c:	00000493          	li	s1,0
    4060:	00400793          	li	a5,4
    4064:	409785b3          	sub	a1,a5,s1
    4068:	00359313          	sll	t1,a1,0x3
    406c:	00690e33          	add	t3,s2,t1
    4070:	ff8e0593          	add	a1,t3,-8
    4074:	01810513          	add	a0,sp,24
    4078:	00800613          	li	a2,8
    407c:	aecfc0ef          	jal	368 <memcpy>
    4080:	01812383          	lw	t2,24(sp)
    4084:	01c12503          	lw	a0,28(sp)
    4088:	0183d593          	srl	a1,t2,0x18
    408c:	0083de93          	srl	t4,t2,0x8
    4090:	00010fb7          	lui	t6,0x10
    4094:	f00f8f93          	add	t6,t6,-256 # ff00 <_erodata+0x6880>
    4098:	01feff33          	and	t5,t4,t6
    409c:	01e5e6b3          	or	a3,a1,t5
    40a0:	00839713          	sll	a4,t2,0x8
    40a4:	00ff0fb7          	lui	t6,0xff0
    40a8:	01f778b3          	and	a7,a4,t6
    40ac:	0116e2b3          	or	t0,a3,a7
    40b0:	01839693          	sll	a3,t2,0x18
    40b4:	ff000fb7          	lui	t6,0xff000
    40b8:	01f6f733          	and	a4,a3,t6
    40bc:	00e2e333          	or	t1,t0,a4
    40c0:	01855613          	srl	a2,a0,0x18
    40c4:	00855393          	srl	t2,a0,0x8
    40c8:	00010fb7          	lui	t6,0x10
    40cc:	f00f8f93          	add	t6,t6,-256 # ff00 <_erodata+0x6880>
    40d0:	01f3f6b3          	and	a3,t2,t6
    40d4:	00d66f33          	or	t5,a2,a3
    40d8:	00851793          	sll	a5,a0,0x8
    40dc:	00ff0fb7          	lui	t6,0xff0
    40e0:	01f7fe33          	and	t3,a5,t6
    40e4:	01cf63b3          	or	t2,t5,t3
    40e8:	01851893          	sll	a7,a0,0x18
    40ec:	ff000fb7          	lui	t6,0xff000
    40f0:	01f8f833          	and	a6,a7,t6
    40f4:	0103e2b3          	or	t0,t2,a6
    40f8:	00349513          	sll	a0,s1,0x3
    40fc:	00a40833          	add	a6,s0,a0
    4100:	00582023          	sw	t0,0(a6)
    4104:	00682223          	sw	t1,4(a6)
    4108:	00148493          	add	s1,s1,1
    410c:	00400f93          	li	t6,4
    4110:	f5f4e8e3          	bltu	s1,t6,4060 <bn_from_bytes_be4+0x28>
    4114:	00812403          	lw	s0,8(sp)
    4118:	00c12483          	lw	s1,12(sp)
    411c:	01012903          	lw	s2,16(sp)
    4120:	00412083          	lw	ra,4(sp)
    4124:	02010113          	add	sp,sp,32
    4128:	00008067          	ret

0000412c <make_prime>:
    412c:	00010f13          	mv	t5,sp
    4130:	ff010113          	add	sp,sp,-16
    4134:	01e12023          	sw	t5,0(sp)
    4138:	00112223          	sw	ra,4(sp)
    413c:	fff00713          	li	a4,-1
    4140:	fff00693          	li	a3,-1
    4144:	00d52023          	sw	a3,0(a0)
    4148:	00e52223          	sw	a4,4(a0)
    414c:	00000593          	li	a1,0
    4150:	fff00393          	li	t2,-1
    4154:	00752423          	sw	t2,8(a0)
    4158:	00b52623          	sw	a1,12(a0)
    415c:	00000613          	li	a2,0
    4160:	00000593          	li	a1,0
    4164:	00b52823          	sw	a1,16(a0)
    4168:	00c52a23          	sw	a2,20(a0)
    416c:	fff00313          	li	t1,-1
    4170:	00100293          	li	t0,1
    4174:	00552c23          	sw	t0,24(a0)
    4178:	00652e23          	sw	t1,28(a0)
    417c:	00412083          	lw	ra,4(sp)
    4180:	01010113          	add	sp,sp,16
    4184:	00008067          	ret

00004188 <make_order>:
    4188:	00010f13          	mv	t5,sp
    418c:	ff010113          	add	sp,sp,-16
    4190:	01e12023          	sw	t5,0(sp)
    4194:	00112223          	sw	ra,4(sp)
    4198:	f3b9d737          	lui	a4,0xf3b9d
    419c:	ac270713          	add	a4,a4,-1342 # f3b9cac2 <_ebss+0xd3b9bc06>
    41a0:	fc6326b7          	lui	a3,0xfc632
    41a4:	55168693          	add	a3,a3,1361 # fc632551 <_ebss+0xdc631695>
    41a8:	00d52023          	sw	a3,0(a0)
    41ac:	00e52223          	sw	a4,4(a0)
    41b0:	bce705b7          	lui	a1,0xbce70
    41b4:	aad58593          	add	a1,a1,-1363 # bce6faad <_ebss+0x9ce6ebf1>
    41b8:	a717a3b7          	lui	t2,0xa717a
    41bc:	e8438393          	add	t2,t2,-380 # a7179e84 <_ebss+0x87178fc8>
    41c0:	00752423          	sw	t2,8(a0)
    41c4:	00b52623          	sw	a1,12(a0)
    41c8:	fff00613          	li	a2,-1
    41cc:	fff00593          	li	a1,-1
    41d0:	00b52823          	sw	a1,16(a0)
    41d4:	00c52a23          	sw	a2,20(a0)
    41d8:	fff00313          	li	t1,-1
    41dc:	00000293          	li	t0,0
    41e0:	00552c23          	sw	t0,24(a0)
    41e4:	00652e23          	sw	t1,28(a0)
    41e8:	00412083          	lw	ra,4(sp)
    41ec:	01010113          	add	sp,sp,16
    41f0:	00008067          	ret

000041f4 <make_fzero>:
    41f4:	00010f13          	mv	t5,sp
    41f8:	ff010113          	add	sp,sp,-16
    41fc:	01e12023          	sw	t5,0(sp)
    4200:	00112223          	sw	ra,4(sp)
    4204:	00000313          	li	t1,0
    4208:	00000293          	li	t0,0
    420c:	00552023          	sw	t0,0(a0)
    4210:	00652223          	sw	t1,4(a0)
    4214:	00552423          	sw	t0,8(a0)
    4218:	00652623          	sw	t1,12(a0)
    421c:	00552823          	sw	t0,16(a0)
    4220:	00652a23          	sw	t1,20(a0)
    4224:	00552c23          	sw	t0,24(a0)
    4228:	00652e23          	sw	t1,28(a0)
    422c:	00412083          	lw	ra,4(sp)
    4230:	01010113          	add	sp,sp,16
    4234:	00008067          	ret

00004238 <make_fone>:
    4238:	00010f13          	mv	t5,sp
    423c:	ff010113          	add	sp,sp,-16
    4240:	01e12023          	sw	t5,0(sp)
    4244:	00112223          	sw	ra,4(sp)
    4248:	00000713          	li	a4,0
    424c:	00100693          	li	a3,1
    4250:	00d52023          	sw	a3,0(a0)
    4254:	00e52223          	sw	a4,4(a0)
    4258:	fff00593          	li	a1,-1
    425c:	00000393          	li	t2,0
    4260:	00752423          	sw	t2,8(a0)
    4264:	00b52623          	sw	a1,12(a0)
    4268:	fff00613          	li	a2,-1
    426c:	fff00593          	li	a1,-1
    4270:	00b52823          	sw	a1,16(a0)
    4274:	00c52a23          	sw	a2,20(a0)
    4278:	00000313          	li	t1,0
    427c:	ffe00293          	li	t0,-2
    4280:	00552c23          	sw	t0,24(a0)
    4284:	00652e23          	sw	t1,28(a0)
    4288:	00412083          	lw	ra,4(sp)
    428c:	01010113          	add	sp,sp,16
    4290:	00008067          	ret

00004294 <fadd>:
    4294:	00010f13          	mv	t5,sp
    4298:	fc010113          	add	sp,sp,-64
    429c:	01e12023          	sw	t5,0(sp)
    42a0:	00112223          	sw	ra,4(sp)
    42a4:	00812423          	sw	s0,8(sp)
    42a8:	00912623          	sw	s1,12(sp)
    42ac:	01212823          	sw	s2,16(sp)
    42b0:	00060413          	mv	s0,a2
    42b4:	00058493          	mv	s1,a1
    42b8:	00050913          	mv	s2,a0
    42bc:	00000313          	li	t1,0
    42c0:	00000293          	li	t0,0
    42c4:	00512c23          	sw	t0,24(sp)
    42c8:	00612e23          	sw	t1,28(sp)
    42cc:	02512023          	sw	t0,32(sp)
    42d0:	02612223          	sw	t1,36(sp)
    42d4:	02512423          	sw	t0,40(sp)
    42d8:	02612623          	sw	t1,44(sp)
    42dc:	02512823          	sw	t0,48(sp)
    42e0:	02612a23          	sw	t1,52(sp)
    42e4:	01810513          	add	a0,sp,24
    42e8:	e45ff0ef          	jal	412c <make_prime>
    42ec:	01810593          	add	a1,sp,24
    42f0:	00040693          	mv	a3,s0
    42f4:	00048613          	mv	a2,s1
    42f8:	00090513          	mv	a0,s2
    42fc:	81dfe0ef          	jal	2b18 <bn_add_mod4>
    4300:	00812403          	lw	s0,8(sp)
    4304:	00c12483          	lw	s1,12(sp)
    4308:	01012903          	lw	s2,16(sp)
    430c:	00412083          	lw	ra,4(sp)
    4310:	04010113          	add	sp,sp,64
    4314:	00008067          	ret

00004318 <fsub>:
    4318:	00010f13          	mv	t5,sp
    431c:	f8010113          	add	sp,sp,-128
    4320:	01e12023          	sw	t5,0(sp)
    4324:	00112223          	sw	ra,4(sp)
    4328:	00812423          	sw	s0,8(sp)
    432c:	00912623          	sw	s1,12(sp)
    4330:	01212823          	sw	s2,16(sp)
    4334:	01312a23          	sw	s3,20(sp)
    4338:	01412c23          	sw	s4,24(sp)
    433c:	01512e23          	sw	s5,28(sp)
    4340:	03612023          	sw	s6,32(sp)
    4344:	03712223          	sw	s7,36(sp)
    4348:	03812423          	sw	s8,40(sp)
    434c:	03912623          	sw	s9,44(sp)
    4350:	03a12823          	sw	s10,48(sp)
    4354:	03b12a23          	sw	s11,52(sp)
    4358:	02c12c23          	sw	a2,56(sp)
    435c:	00058993          	mv	s3,a1
    4360:	00050913          	mv	s2,a0
    4364:	00000813          	li	a6,0
    4368:	00000793          	li	a5,0
    436c:	04f12023          	sw	a5,64(sp)
    4370:	05012223          	sw	a6,68(sp)
    4374:	04f12423          	sw	a5,72(sp)
    4378:	05012623          	sw	a6,76(sp)
    437c:	04f12823          	sw	a5,80(sp)
    4380:	05012a23          	sw	a6,84(sp)
    4384:	04f12c23          	sw	a5,88(sp)
    4388:	05012e23          	sw	a6,92(sp)
    438c:	04010513          	add	a0,sp,64
    4390:	d9dff0ef          	jal	412c <make_prime>
    4394:	04010a93          	add	s5,sp,64
    4398:	00000713          	li	a4,0
    439c:	00000b13          	li	s6,0
    43a0:	00000a13          	li	s4,0
    43a4:	005a1593          	sll	a1,s4,0x5
    43a8:	00b987b3          	add	a5,s3,a1
    43ac:	0007ad83          	lw	s11,0(a5)
    43b0:	0047ad03          	lw	s10,4(a5)
    43b4:	03812503          	lw	a0,56(sp)
    43b8:	00b507b3          	add	a5,a0,a1
    43bc:	0007a603          	lw	a2,0(a5)
    43c0:	0047a683          	lw	a3,4(a5)
    43c4:	00b90433          	add	s0,s2,a1
    43c8:	00cdb0b3          	sltu	ra,s11,a2
    43cc:	40cd83b3          	sub	t2,s11,a2
    43d0:	40dd0333          	sub	t1,s10,a3
    43d4:	40130333          	sub	t1,t1,ra
    43d8:	0163b0b3          	sltu	ra,t2,s6
    43dc:	41638c33          	sub	s8,t2,s6
    43e0:	40e30bb3          	sub	s7,t1,a4
    43e4:	401b8bb3          	sub	s7,s7,ra
    43e8:	000d0693          	mv	a3,s10
    43ec:	000d8613          	mv	a2,s11
    43f0:	000b8593          	mv	a1,s7
    43f4:	000c0513          	mv	a0,s8
    43f8:	87dfc0ef          	jal	c74 <FStar_UInt64_gte_mask>
    43fc:	00050c93          	mv	s9,a0
    4400:	000d0693          	mv	a3,s10
    4404:	000d8613          	mv	a2,s11
    4408:	000b8593          	mv	a1,s7
    440c:	000c0513          	mv	a0,s8
    4410:	801fc0ef          	jal	c10 <FStar_UInt64_eq_mask>
    4414:	00050493          	mv	s1,a0
    4418:	000d0693          	mv	a3,s10
    441c:	000d8613          	mv	a2,s11
    4420:	000b8593          	mv	a1,s7
    4424:	000c0513          	mv	a0,s8
    4428:	fe8fc0ef          	jal	c10 <FStar_UInt64_eq_mask>
    442c:	fff4cf13          	not	t5,s1
    4430:	01ecf2b3          	and	t0,s9,t5
    4434:	016578b3          	and	a7,a0,s6
    4438:	0112e333          	or	t1,t0,a7
    443c:	00000393          	li	t2,0
    4440:	00137313          	and	t1,t1,1
    4444:	01842023          	sw	s8,0(s0)
    4448:	01742223          	sw	s7,4(s0)
    444c:	005a1e13          	sll	t3,s4,0x5
    4450:	01c98eb3          	add	t4,s3,t3
    4454:	008ead03          	lw	s10,8(t4)
    4458:	00ceac83          	lw	s9,12(t4)
    445c:	03812603          	lw	a2,56(sp)
    4460:	01c60733          	add	a4,a2,t3
    4464:	00872683          	lw	a3,8(a4)
    4468:	00c72703          	lw	a4,12(a4)
    446c:	01c908b3          	add	a7,s2,t3
    4470:	00888493          	add	s1,a7,8
    4474:	00030b13          	mv	s6,t1
    4478:	00dd30b3          	sltu	ra,s10,a3
    447c:	40dd02b3          	sub	t0,s10,a3
    4480:	40ec8333          	sub	t1,s9,a4
    4484:	40130333          	sub	t1,t1,ra
    4488:	0162b0b3          	sltu	ra,t0,s6
    448c:	41628c33          	sub	s8,t0,s6
    4490:	40730bb3          	sub	s7,t1,t2
    4494:	401b8bb3          	sub	s7,s7,ra
    4498:	000c8693          	mv	a3,s9
    449c:	000d0613          	mv	a2,s10
    44a0:	000b8593          	mv	a1,s7
    44a4:	000c0513          	mv	a0,s8
    44a8:	fccfc0ef          	jal	c74 <FStar_UInt64_gte_mask>
    44ac:	00050d93          	mv	s11,a0
    44b0:	000c8693          	mv	a3,s9
    44b4:	000d0613          	mv	a2,s10
    44b8:	000b8593          	mv	a1,s7
    44bc:	000c0513          	mv	a0,s8
    44c0:	f50fc0ef          	jal	c10 <FStar_UInt64_eq_mask>
    44c4:	00050413          	mv	s0,a0
    44c8:	000c8693          	mv	a3,s9
    44cc:	000d0613          	mv	a2,s10
    44d0:	000b8593          	mv	a1,s7
    44d4:	000c0513          	mv	a0,s8
    44d8:	f38fc0ef          	jal	c10 <FStar_UInt64_eq_mask>
    44dc:	fff44813          	not	a6,s0
    44e0:	010dfeb3          	and	t4,s11,a6
    44e4:	016573b3          	and	t2,a0,s6
    44e8:	007ee733          	or	a4,t4,t2
    44ec:	00000e13          	li	t3,0
    44f0:	00177693          	and	a3,a4,1
    44f4:	0184a023          	sw	s8,0(s1)
    44f8:	0174a223          	sw	s7,4(s1)
    44fc:	005a1593          	sll	a1,s4,0x5
    4500:	00b982b3          	add	t0,s3,a1
    4504:	0102ad03          	lw	s10,16(t0)
    4508:	0142ac83          	lw	s9,20(t0)
    450c:	03812383          	lw	t2,56(sp)
    4510:	00b38633          	add	a2,t2,a1
    4514:	01062503          	lw	a0,16(a2)
    4518:	01462603          	lw	a2,20(a2)
    451c:	00b907b3          	add	a5,s2,a1
    4520:	01078413          	add	s0,a5,16
    4524:	00068b13          	mv	s6,a3
    4528:	00ad30b3          	sltu	ra,s10,a0
    452c:	40ad0833          	sub	a6,s10,a0
    4530:	40cc8633          	sub	a2,s9,a2
    4534:	40160633          	sub	a2,a2,ra
    4538:	016830b3          	sltu	ra,a6,s6
    453c:	41680c33          	sub	s8,a6,s6
    4540:	41c60bb3          	sub	s7,a2,t3
    4544:	401b8bb3          	sub	s7,s7,ra
    4548:	000c8693          	mv	a3,s9
    454c:	000d0613          	mv	a2,s10
    4550:	000b8593          	mv	a1,s7
    4554:	000c0513          	mv	a0,s8
    4558:	f1cfc0ef          	jal	c74 <FStar_UInt64_gte_mask>
    455c:	00050d93          	mv	s11,a0
    4560:	000c8693          	mv	a3,s9
    4564:	000d0613          	mv	a2,s10
    4568:	000b8593          	mv	a1,s7
    456c:	000c0513          	mv	a0,s8
    4570:	ea0fc0ef          	jal	c10 <FStar_UInt64_eq_mask>
    4574:	00050493          	mv	s1,a0
    4578:	000c8693          	mv	a3,s9
    457c:	000d0613          	mv	a2,s10
    4580:	000b8593          	mv	a1,s7
    4584:	000c0513          	mv	a0,s8
    4588:	e88fc0ef          	jal	c10 <FStar_UInt64_eq_mask>
    458c:	fff4ce13          	not	t3,s1
    4590:	01cdf7b3          	and	a5,s11,t3
    4594:	01657eb3          	and	t4,a0,s6
    4598:	01d7eeb3          	or	t4,a5,t4
    459c:	00000713          	li	a4,0
    45a0:	001ef593          	and	a1,t4,1
    45a4:	01842023          	sw	s8,0(s0)
    45a8:	01742223          	sw	s7,4(s0)
    45ac:	005a1313          	sll	t1,s4,0x5
    45b0:	006986b3          	add	a3,s3,t1
    45b4:	0186ad03          	lw	s10,24(a3)
    45b8:	01c6ac83          	lw	s9,28(a3)
    45bc:	03812283          	lw	t0,56(sp)
    45c0:	006283b3          	add	t2,t0,t1
    45c4:	0183ae83          	lw	t4,24(t2)
    45c8:	01c3af03          	lw	t5,28(t2)
    45cc:	00690633          	add	a2,s2,t1
    45d0:	01860493          	add	s1,a2,24
    45d4:	00058b13          	mv	s6,a1
    45d8:	01dd30b3          	sltu	ra,s10,t4
    45dc:	41dd08b3          	sub	a7,s10,t4
    45e0:	41ec8eb3          	sub	t4,s9,t5
    45e4:	401e8eb3          	sub	t4,t4,ra
    45e8:	0168b0b3          	sltu	ra,a7,s6
    45ec:	41688c33          	sub	s8,a7,s6
    45f0:	40ee8bb3          	sub	s7,t4,a4
    45f4:	401b8bb3          	sub	s7,s7,ra
    45f8:	000c8693          	mv	a3,s9
    45fc:	000d0613          	mv	a2,s10
    4600:	000b8593          	mv	a1,s7
    4604:	000c0513          	mv	a0,s8
    4608:	e6cfc0ef          	jal	c74 <FStar_UInt64_gte_mask>
    460c:	00050d93          	mv	s11,a0
    4610:	000c8693          	mv	a3,s9
    4614:	000d0613          	mv	a2,s10
    4618:	000b8593          	mv	a1,s7
    461c:	000c0513          	mv	a0,s8
    4620:	df0fc0ef          	jal	c10 <FStar_UInt64_eq_mask>
    4624:	00050413          	mv	s0,a0
    4628:	000c8693          	mv	a3,s9
    462c:	000d0613          	mv	a2,s10
    4630:	000b8593          	mv	a1,s7
    4634:	000c0513          	mv	a0,s8
    4638:	dd8fc0ef          	jal	c10 <FStar_UInt64_eq_mask>
    463c:	fff44593          	not	a1,s0
    4640:	00bdf6b3          	and	a3,s11,a1
    4644:	01657733          	and	a4,a0,s6
    4648:	00e6ee33          	or	t3,a3,a4
    464c:	00000713          	li	a4,0
    4650:	001e7b13          	and	s6,t3,1
    4654:	0184a023          	sw	s8,0(s1)
    4658:	0174a223          	sw	s7,4(s1)
    465c:	001a0a13          	add	s4,s4,1
    4660:	00100f93          	li	t6,1
    4664:	d5fa60e3          	bltu	s4,t6,43a4 <fsub+0x8c>
    4668:	00070413          	mv	s0,a4
    466c:	00000513          	li	a0,0
    4670:	00000993          	li	s3,0
    4674:	07312023          	sw	s3,96(sp)
    4678:	06a12223          	sw	a0,100(sp)
    467c:	07312423          	sw	s3,104(sp)
    4680:	06a12623          	sw	a0,108(sp)
    4684:	07312823          	sw	s3,112(sp)
    4688:	06a12a23          	sw	a0,116(sp)
    468c:	07312c23          	sw	s3,120(sp)
    4690:	06a12e23          	sw	a0,124(sp)
    4694:	00000c93          	li	s9,0
    4698:	005c9f13          	sll	t5,s9,0x5
    469c:	01e906b3          	add	a3,s2,t5
    46a0:	0006ad83          	lw	s11,0(a3)
    46a4:	0046a483          	lw	s1,4(a3)
    46a8:	01ea82b3          	add	t0,s5,t5
    46ac:	0002a783          	lw	a5,0(t0)
    46b0:	0042a803          	lw	a6,4(t0)
    46b4:	06010293          	add	t0,sp,96
    46b8:	01e28d33          	add	s10,t0,t5
    46bc:	013d88b3          	add	a7,s11,s3
    46c0:	0138b0b3          	sltu	ra,a7,s3
    46c4:	00a486b3          	add	a3,s1,a0
    46c8:	001686b3          	add	a3,a3,ra
    46cc:	00f88bb3          	add	s7,a7,a5
    46d0:	00fbb0b3          	sltu	ra,s7,a5
    46d4:	01068a33          	add	s4,a3,a6
    46d8:	001a0a33          	add	s4,s4,ra
    46dc:	00048693          	mv	a3,s1
    46e0:	000d8613          	mv	a2,s11
    46e4:	000a0593          	mv	a1,s4
    46e8:	000b8513          	mv	a0,s7
    46ec:	d88fc0ef          	jal	c74 <FStar_UInt64_gte_mask>
    46f0:	00050c13          	mv	s8,a0
    46f4:	00048693          	mv	a3,s1
    46f8:	000d8613          	mv	a2,s11
    46fc:	000a0593          	mv	a1,s4
    4700:	000b8513          	mv	a0,s7
    4704:	d0cfc0ef          	jal	c10 <FStar_UInt64_eq_mask>
    4708:	fffc4f13          	not	t5,s8
    470c:	01357833          	and	a6,a0,s3
    4710:	010f6533          	or	a0,t5,a6
    4714:	00000f13          	li	t5,0
    4718:	00157993          	and	s3,a0,1
    471c:	017d2023          	sw	s7,0(s10)
    4720:	014d2223          	sw	s4,4(s10)
    4724:	005c9313          	sll	t1,s9,0x5
    4728:	006906b3          	add	a3,s2,t1
    472c:	0086ad83          	lw	s11,8(a3)
    4730:	00c6a483          	lw	s1,12(a3)
    4734:	006a87b3          	add	a5,s5,t1
    4738:	0087a283          	lw	t0,8(a5)
    473c:	00c7a383          	lw	t2,12(a5)
    4740:	06010813          	add	a6,sp,96
    4744:	00680533          	add	a0,a6,t1
    4748:	00850a13          	add	s4,a0,8
    474c:	013d8533          	add	a0,s11,s3
    4750:	013530b3          	sltu	ra,a0,s3
    4754:	01e485b3          	add	a1,s1,t5
    4758:	001585b3          	add	a1,a1,ra
    475c:	00550bb3          	add	s7,a0,t0
    4760:	005bb0b3          	sltu	ra,s7,t0
    4764:	00758c33          	add	s8,a1,t2
    4768:	001c0c33          	add	s8,s8,ra
    476c:	00048693          	mv	a3,s1
    4770:	000d8613          	mv	a2,s11
    4774:	000c0593          	mv	a1,s8
    4778:	000b8513          	mv	a0,s7
    477c:	cf8fc0ef          	jal	c74 <FStar_UInt64_gte_mask>
    4780:	00050d13          	mv	s10,a0
    4784:	00048693          	mv	a3,s1
    4788:	000d8613          	mv	a2,s11
    478c:	000c0593          	mv	a1,s8
    4790:	000b8513          	mv	a0,s7
    4794:	c7cfc0ef          	jal	c10 <FStar_UInt64_eq_mask>
    4798:	fffd4893          	not	a7,s10
    479c:	01357eb3          	and	t4,a0,s3
    47a0:	01d8e7b3          	or	a5,a7,t4
    47a4:	00000e13          	li	t3,0
    47a8:	0017f993          	and	s3,a5,1
    47ac:	017a2023          	sw	s7,0(s4)
    47b0:	018a2223          	sw	s8,4(s4)
    47b4:	005c9693          	sll	a3,s9,0x5
    47b8:	00d908b3          	add	a7,s2,a3
    47bc:	0108ad83          	lw	s11,16(a7)
    47c0:	0148a483          	lw	s1,20(a7)
    47c4:	00da83b3          	add	t2,s5,a3
    47c8:	0103a583          	lw	a1,16(t2)
    47cc:	0143a603          	lw	a2,20(t2)
    47d0:	06010713          	add	a4,sp,96
    47d4:	00d70eb3          	add	t4,a4,a3
    47d8:	010e8d13          	add	s10,t4,16
    47dc:	013d8f33          	add	t5,s11,s3
    47e0:	013f30b3          	sltu	ra,t5,s3
    47e4:	01c48533          	add	a0,s1,t3
    47e8:	00150533          	add	a0,a0,ra
    47ec:	00bf0bb3          	add	s7,t5,a1
    47f0:	00bbb0b3          	sltu	ra,s7,a1
    47f4:	00c50a33          	add	s4,a0,a2
    47f8:	001a0a33          	add	s4,s4,ra
    47fc:	00048693          	mv	a3,s1
    4800:	000d8613          	mv	a2,s11
    4804:	000a0593          	mv	a1,s4
    4808:	000b8513          	mv	a0,s7
    480c:	c68fc0ef          	jal	c74 <FStar_UInt64_gte_mask>
    4810:	00050c13          	mv	s8,a0
    4814:	00048693          	mv	a3,s1
    4818:	000d8613          	mv	a2,s11
    481c:	000a0593          	mv	a1,s4
    4820:	000b8513          	mv	a0,s7
    4824:	becfc0ef          	jal	c10 <FStar_UInt64_eq_mask>
    4828:	fffc4393          	not	t2,s8
    482c:	013578b3          	and	a7,a0,s3
    4830:	0113e633          	or	a2,t2,a7
    4834:	00000393          	li	t2,0
    4838:	00167993          	and	s3,a2,1
    483c:	017d2023          	sw	s7,0(s10)
    4840:	014d2223          	sw	s4,4(s10)
    4844:	005c9e93          	sll	t4,s9,0x5
    4848:	01d90333          	add	t1,s2,t4
    484c:	01832d83          	lw	s11,24(t1)
    4850:	01c32483          	lw	s1,28(t1)
    4854:	01da85b3          	add	a1,s5,t4
    4858:	0185a883          	lw	a7,24(a1)
    485c:	01c5ae03          	lw	t3,28(a1)
    4860:	06010613          	add	a2,sp,96
    4864:	01d602b3          	add	t0,a2,t4
    4868:	01828a13          	add	s4,t0,24
    486c:	013d8f33          	add	t5,s11,s3
    4870:	013f30b3          	sltu	ra,t5,s3
    4874:	007485b3          	add	a1,s1,t2
    4878:	001585b3          	add	a1,a1,ra
    487c:	011f0bb3          	add	s7,t5,a7
    4880:	011bb0b3          	sltu	ra,s7,a7
    4884:	01c58c33          	add	s8,a1,t3
    4888:	001c0c33          	add	s8,s8,ra
    488c:	00048693          	mv	a3,s1
    4890:	000d8613          	mv	a2,s11
    4894:	000c0593          	mv	a1,s8
    4898:	000b8513          	mv	a0,s7
    489c:	bd8fc0ef          	jal	c74 <FStar_UInt64_gte_mask>
    48a0:	00050d13          	mv	s10,a0
    48a4:	00048693          	mv	a3,s1
    48a8:	000d8613          	mv	a2,s11
    48ac:	000c0593          	mv	a1,s8
    48b0:	000b8513          	mv	a0,s7
    48b4:	b5cfc0ef          	jal	c10 <FStar_UInt64_eq_mask>
    48b8:	fffd4713          	not	a4,s10
    48bc:	01357f33          	and	t5,a0,s3
    48c0:	01e768b3          	or	a7,a4,t5
    48c4:	00000513          	li	a0,0
    48c8:	0018f993          	and	s3,a7,1
    48cc:	017a2023          	sw	s7,0(s4)
    48d0:	018a2223          	sw	s8,4(s4)
    48d4:	001c8c93          	add	s9,s9,1
    48d8:	00100f93          	li	t6,1
    48dc:	dbfceee3          	bltu	s9,t6,4698 <fsub+0x380>
    48e0:	016030b3          	snez	ra,s6
    48e4:	416003b3          	neg	t2,s6
    48e8:	408007b3          	neg	a5,s0
    48ec:	401787b3          	sub	a5,a5,ra
    48f0:	00000893          	li	a7,0
    48f4:	00078813          	mv	a6,a5
    48f8:	06010e13          	add	t3,sp,96
    48fc:	00389693          	sll	a3,a7,0x3
    4900:	00de0f33          	add	t5,t3,a3
    4904:	000f2e03          	lw	t3,0(t5)
    4908:	004f2283          	lw	t0,4(t5)
    490c:	00587733          	and	a4,a6,t0
    4910:	00038513          	mv	a0,t2
    4914:	01c57eb3          	and	t4,a0,t3
    4918:	fff84293          	not	t0,a6
    491c:	fff54513          	not	a0,a0
    4920:	00d905b3          	add	a1,s2,a3
    4924:	0005ae03          	lw	t3,0(a1)
    4928:	0045a603          	lw	a2,4(a1)
    492c:	00c2f6b3          	and	a3,t0,a2
    4930:	01c57633          	and	a2,a0,t3
    4934:	00d76333          	or	t1,a4,a3
    4938:	00cee2b3          	or	t0,t4,a2
    493c:	0055a023          	sw	t0,0(a1)
    4940:	0065a223          	sw	t1,4(a1)
    4944:	00188893          	add	a7,a7,1
    4948:	00400f93          	li	t6,4
    494c:	fbf8e4e3          	bltu	a7,t6,48f4 <fsub+0x5dc>
    4950:	00812403          	lw	s0,8(sp)
    4954:	00c12483          	lw	s1,12(sp)
    4958:	01012903          	lw	s2,16(sp)
    495c:	01412983          	lw	s3,20(sp)
    4960:	01812a03          	lw	s4,24(sp)
    4964:	01c12a83          	lw	s5,28(sp)
    4968:	02012b03          	lw	s6,32(sp)
    496c:	02412b83          	lw	s7,36(sp)
    4970:	02812c03          	lw	s8,40(sp)
    4974:	02c12c83          	lw	s9,44(sp)
    4978:	03012d03          	lw	s10,48(sp)
    497c:	03412d83          	lw	s11,52(sp)
    4980:	00412083          	lw	ra,4(sp)
    4984:	08010113          	add	sp,sp,128
    4988:	00008067          	ret

0000498c <mont_reduction>:
    498c:	00010f13          	mv	t5,sp
    4990:	f8010113          	add	sp,sp,-128
    4994:	01e12023          	sw	t5,0(sp)
    4998:	00112223          	sw	ra,4(sp)
    499c:	00812423          	sw	s0,8(sp)
    49a0:	00912623          	sw	s1,12(sp)
    49a4:	01212823          	sw	s2,16(sp)
    49a8:	01312a23          	sw	s3,20(sp)
    49ac:	01412c23          	sw	s4,24(sp)
    49b0:	01512e23          	sw	s5,28(sp)
    49b4:	03612023          	sw	s6,32(sp)
    49b8:	03712223          	sw	s7,36(sp)
    49bc:	03812423          	sw	s8,40(sp)
    49c0:	03912623          	sw	s9,44(sp)
    49c4:	03a12823          	sw	s10,48(sp)
    49c8:	03b12a23          	sw	s11,52(sp)
    49cc:	00058b13          	mv	s6,a1
    49d0:	00050a13          	mv	s4,a0
    49d4:	00000513          	li	a0,0
    49d8:	00000393          	li	t2,0
    49dc:	02712c23          	sw	t2,56(sp)
    49e0:	02a12e23          	sw	a0,60(sp)
    49e4:	04712023          	sw	t2,64(sp)
    49e8:	04a12223          	sw	a0,68(sp)
    49ec:	04712423          	sw	t2,72(sp)
    49f0:	04a12623          	sw	a0,76(sp)
    49f4:	04712823          	sw	t2,80(sp)
    49f8:	04a12a23          	sw	a0,84(sp)
    49fc:	03810513          	add	a0,sp,56
    4a00:	f2cff0ef          	jal	412c <make_prime>
    4a04:	00000993          	li	s3,0
    4a08:	00000913          	li	s2,0
    4a0c:	00000a93          	li	s5,0
    4a10:	003a9f13          	sll	t5,s5,0x3
    4a14:	01eb0bb3          	add	s7,s6,t5
    4a18:	000ba483          	lw	s1,0(s7)
    4a1c:	004ba403          	lw	s0,4(s7)
    4a20:	00000593          	li	a1,0
    4a24:	00000513          	li	a0,0
    4a28:	00000c13          	li	s8,0
    4a2c:	03810813          	add	a6,sp,56
    4a30:	005c1793          	sll	a5,s8,0x5
    4a34:	00f80633          	add	a2,a6,a5
    4a38:	00062303          	lw	t1,0(a2)
    4a3c:	00462283          	lw	t0,4(a2)
    4a40:	00fb8833          	add	a6,s7,a5
    4a44:	00058793          	mv	a5,a1
    4a48:	00050713          	mv	a4,a0
    4a4c:	00040693          	mv	a3,s0
    4a50:	00048613          	mv	a2,s1
    4a54:	00028593          	mv	a1,t0
    4a58:	00030513          	mv	a0,t1
    4a5c:	ab4fd0ef          	jal	1d10 <mul_wide_add2_u64>
    4a60:	00058793          	mv	a5,a1
    4a64:	00050713          	mv	a4,a0
    4a68:	04010293          	add	t0,sp,64
    4a6c:	005c1813          	sll	a6,s8,0x5
    4a70:	01028f33          	add	t5,t0,a6
    4a74:	000f2503          	lw	a0,0(t5)
    4a78:	004f2583          	lw	a1,4(t5)
    4a7c:	010b8633          	add	a2,s7,a6
    4a80:	00860813          	add	a6,a2,8
    4a84:	00040693          	mv	a3,s0
    4a88:	00048613          	mv	a2,s1
    4a8c:	a84fd0ef          	jal	1d10 <mul_wide_add2_u64>
    4a90:	00058793          	mv	a5,a1
    4a94:	00050713          	mv	a4,a0
    4a98:	04810893          	add	a7,sp,72
    4a9c:	005c1813          	sll	a6,s8,0x5
    4aa0:	010888b3          	add	a7,a7,a6
    4aa4:	0008a503          	lw	a0,0(a7)
    4aa8:	0048a583          	lw	a1,4(a7)
    4aac:	010b8633          	add	a2,s7,a6
    4ab0:	01060813          	add	a6,a2,16
    4ab4:	00040693          	mv	a3,s0
    4ab8:	00048613          	mv	a2,s1
    4abc:	a54fd0ef          	jal	1d10 <mul_wide_add2_u64>
    4ac0:	00058793          	mv	a5,a1
    4ac4:	00050713          	mv	a4,a0
    4ac8:	05010893          	add	a7,sp,80
    4acc:	005c1813          	sll	a6,s8,0x5
    4ad0:	010885b3          	add	a1,a7,a6
    4ad4:	0005a503          	lw	a0,0(a1)
    4ad8:	0045a583          	lw	a1,4(a1)
    4adc:	010b8333          	add	t1,s7,a6
    4ae0:	01830813          	add	a6,t1,24
    4ae4:	00040693          	mv	a3,s0
    4ae8:	00048613          	mv	a2,s1
    4aec:	a24fd0ef          	jal	1d10 <mul_wide_add2_u64>
    4af0:	001c0c13          	add	s8,s8,1
    4af4:	00100f93          	li	t6,1
    4af8:	f3fc6ae3          	bltu	s8,t6,4a2c <mont_reduction+0xa0>
    4afc:	00058493          	mv	s1,a1
    4b00:	00050413          	mv	s0,a0
    4b04:	003a9893          	sll	a7,s5,0x3
    4b08:	011b0633          	add	a2,s6,a7
    4b0c:	02060c93          	add	s9,a2,32
    4b10:	02062883          	lw	a7,32(a2)
    4b14:	02462e03          	lw	t3,36(a2)
    4b18:	012405b3          	add	a1,s0,s2
    4b1c:	0125b0b3          	sltu	ra,a1,s2
    4b20:	01348eb3          	add	t4,s1,s3
    4b24:	001e8eb3          	add	t4,t4,ra
    4b28:	01158c33          	add	s8,a1,a7
    4b2c:	011c30b3          	sltu	ra,s8,a7
    4b30:	01ce8bb3          	add	s7,t4,t3
    4b34:	001b8bb3          	add	s7,s7,ra
    4b38:	00048693          	mv	a3,s1
    4b3c:	00040613          	mv	a2,s0
    4b40:	000b8593          	mv	a1,s7
    4b44:	000c0513          	mv	a0,s8
    4b48:	92cfc0ef          	jal	c74 <FStar_UInt64_gte_mask>
    4b4c:	00050993          	mv	s3,a0
    4b50:	00048693          	mv	a3,s1
    4b54:	00040613          	mv	a2,s0
    4b58:	000b8593          	mv	a1,s7
    4b5c:	000c0513          	mv	a0,s8
    4b60:	8b0fc0ef          	jal	c10 <FStar_UInt64_eq_mask>
    4b64:	fff9c593          	not	a1,s3
    4b68:	01257733          	and	a4,a0,s2
    4b6c:	00e5ee33          	or	t3,a1,a4
    4b70:	00000993          	li	s3,0
    4b74:	001e7913          	and	s2,t3,1
    4b78:	018ca023          	sw	s8,0(s9)
    4b7c:	017ca223          	sw	s7,4(s9)
    4b80:	001a8a93          	add	s5,s5,1
    4b84:	00400f93          	li	t6,4
    4b88:	e9fae4e3          	bltu	s5,t6,4a10 <mont_reduction+0x84>
    4b8c:	020b0593          	add	a1,s6,32
    4b90:	02000613          	li	a2,32
    4b94:	000a0513          	mv	a0,s4
    4b98:	fd0fb0ef          	jal	368 <memcpy>
    4b9c:	00000293          	li	t0,0
    4ba0:	00000c13          	li	s8,0
    4ba4:	05812c23          	sw	s8,88(sp)
    4ba8:	04512e23          	sw	t0,92(sp)
    4bac:	07812023          	sw	s8,96(sp)
    4bb0:	06512223          	sw	t0,100(sp)
    4bb4:	07812423          	sw	s8,104(sp)
    4bb8:	06512623          	sw	t0,108(sp)
    4bbc:	07812823          	sw	s8,112(sp)
    4bc0:	06512a23          	sw	t0,116(sp)
    4bc4:	00000493          	li	s1,0
    4bc8:	00549613          	sll	a2,s1,0x5
    4bcc:	00ca0533          	add	a0,s4,a2
    4bd0:	00052d03          	lw	s10,0(a0)
    4bd4:	00452d83          	lw	s11,4(a0)
    4bd8:	03810e13          	add	t3,sp,56
    4bdc:	00ce05b3          	add	a1,t3,a2
    4be0:	0005a503          	lw	a0,0(a1)
    4be4:	0045a583          	lw	a1,4(a1)
    4be8:	05810713          	add	a4,sp,88
    4bec:	00c70b33          	add	s6,a4,a2
    4bf0:	00ad30b3          	sltu	ra,s10,a0
    4bf4:	40ad0eb3          	sub	t4,s10,a0
    4bf8:	40bd8f33          	sub	t5,s11,a1
    4bfc:	401f0f33          	sub	t5,t5,ra
    4c00:	018eb0b3          	sltu	ra,t4,s8
    4c04:	418e8bb3          	sub	s7,t4,s8
    4c08:	405f0cb3          	sub	s9,t5,t0
    4c0c:	401c8cb3          	sub	s9,s9,ra
    4c10:	000d8693          	mv	a3,s11
    4c14:	000d0613          	mv	a2,s10
    4c18:	000c8593          	mv	a1,s9
    4c1c:	000b8513          	mv	a0,s7
    4c20:	854fc0ef          	jal	c74 <FStar_UInt64_gte_mask>
    4c24:	00050a93          	mv	s5,a0
    4c28:	000d8693          	mv	a3,s11
    4c2c:	000d0613          	mv	a2,s10
    4c30:	000c8593          	mv	a1,s9
    4c34:	000b8513          	mv	a0,s7
    4c38:	fd9fb0ef          	jal	c10 <FStar_UInt64_eq_mask>
    4c3c:	00050413          	mv	s0,a0
    4c40:	000d8693          	mv	a3,s11
    4c44:	000d0613          	mv	a2,s10
    4c48:	000c8593          	mv	a1,s9
    4c4c:	000b8513          	mv	a0,s7
    4c50:	fc1fb0ef          	jal	c10 <FStar_UInt64_eq_mask>
    4c54:	fff44593          	not	a1,s0
    4c58:	00baf5b3          	and	a1,s5,a1
    4c5c:	018572b3          	and	t0,a0,s8
    4c60:	0055ef33          	or	t5,a1,t0
    4c64:	00000593          	li	a1,0
    4c68:	001f7a93          	and	s5,t5,1
    4c6c:	017b2023          	sw	s7,0(s6)
    4c70:	019b2223          	sw	s9,4(s6)
    4c74:	00549693          	sll	a3,s1,0x5
    4c78:	00da0633          	add	a2,s4,a3
    4c7c:	00862b03          	lw	s6,8(a2)
    4c80:	00c62b83          	lw	s7,12(a2)
    4c84:	04010e13          	add	t3,sp,64
    4c88:	00de08b3          	add	a7,t3,a3
    4c8c:	0008ae83          	lw	t4,0(a7)
    4c90:	0048af03          	lw	t5,4(a7)
    4c94:	05810893          	add	a7,sp,88
    4c98:	00d88e33          	add	t3,a7,a3
    4c9c:	008e0c93          	add	s9,t3,8
    4ca0:	01db30b3          	sltu	ra,s6,t4
    4ca4:	41db06b3          	sub	a3,s6,t4
    4ca8:	41eb8f33          	sub	t5,s7,t5
    4cac:	401f0f33          	sub	t5,t5,ra
    4cb0:	0156b0b3          	sltu	ra,a3,s5
    4cb4:	41568d33          	sub	s10,a3,s5
    4cb8:	40bf0c33          	sub	s8,t5,a1
    4cbc:	401c0c33          	sub	s8,s8,ra
    4cc0:	000b8693          	mv	a3,s7
    4cc4:	000b0613          	mv	a2,s6
    4cc8:	000c0593          	mv	a1,s8
    4ccc:	000d0513          	mv	a0,s10
    4cd0:	fa5fb0ef          	jal	c74 <FStar_UInt64_gte_mask>
    4cd4:	00050413          	mv	s0,a0
    4cd8:	000b8693          	mv	a3,s7
    4cdc:	000b0613          	mv	a2,s6
    4ce0:	000c0593          	mv	a1,s8
    4ce4:	000d0513          	mv	a0,s10
    4ce8:	f29fb0ef          	jal	c10 <FStar_UInt64_eq_mask>
    4cec:	00050d93          	mv	s11,a0
    4cf0:	000b8693          	mv	a3,s7
    4cf4:	000b0613          	mv	a2,s6
    4cf8:	000c0593          	mv	a1,s8
    4cfc:	000d0513          	mv	a0,s10
    4d00:	f11fb0ef          	jal	c10 <FStar_UInt64_eq_mask>
    4d04:	fffdce93          	not	t4,s11
    4d08:	01d47733          	and	a4,s0,t4
    4d0c:	01557333          	and	t1,a0,s5
    4d10:	00676333          	or	t1,a4,t1
    4d14:	00000e13          	li	t3,0
    4d18:	00137b93          	and	s7,t1,1
    4d1c:	01aca023          	sw	s10,0(s9)
    4d20:	018ca223          	sw	s8,4(s9)
    4d24:	00549513          	sll	a0,s1,0x5
    4d28:	00aa0eb3          	add	t4,s4,a0
    4d2c:	010eac03          	lw	s8,16(t4)
    4d30:	014eac83          	lw	s9,20(t4)
    4d34:	04810793          	add	a5,sp,72
    4d38:	00a785b3          	add	a1,a5,a0
    4d3c:	0005a803          	lw	a6,0(a1)
    4d40:	0045a883          	lw	a7,4(a1)
    4d44:	05810593          	add	a1,sp,88
    4d48:	00a58333          	add	t1,a1,a0
    4d4c:	01030413          	add	s0,t1,16
    4d50:	010c30b3          	sltu	ra,s8,a6
    4d54:	410c0333          	sub	t1,s8,a6
    4d58:	411c87b3          	sub	a5,s9,a7
    4d5c:	401787b3          	sub	a5,a5,ra
    4d60:	017330b3          	sltu	ra,t1,s7
    4d64:	41730b33          	sub	s6,t1,s7
    4d68:	41c78ab3          	sub	s5,a5,t3
    4d6c:	401a8ab3          	sub	s5,s5,ra
    4d70:	000c8693          	mv	a3,s9
    4d74:	000c0613          	mv	a2,s8
    4d78:	000a8593          	mv	a1,s5
    4d7c:	000b0513          	mv	a0,s6
    4d80:	ef5fb0ef          	jal	c74 <FStar_UInt64_gte_mask>
    4d84:	00050d93          	mv	s11,a0
    4d88:	000c8693          	mv	a3,s9
    4d8c:	000c0613          	mv	a2,s8
    4d90:	000a8593          	mv	a1,s5
    4d94:	000b0513          	mv	a0,s6
    4d98:	e79fb0ef          	jal	c10 <FStar_UInt64_eq_mask>
    4d9c:	00050d13          	mv	s10,a0
    4da0:	000c8693          	mv	a3,s9
    4da4:	000c0613          	mv	a2,s8
    4da8:	000a8593          	mv	a1,s5
    4dac:	000b0513          	mv	a0,s6
    4db0:	e61fb0ef          	jal	c10 <FStar_UInt64_eq_mask>
    4db4:	fffd4393          	not	t2,s10
    4db8:	007dfeb3          	and	t4,s11,t2
    4dbc:	01757733          	and	a4,a0,s7
    4dc0:	00eee6b3          	or	a3,t4,a4
    4dc4:	00000613          	li	a2,0
    4dc8:	0016fb93          	and	s7,a3,1
    4dcc:	01642023          	sw	s6,0(s0)
    4dd0:	01542223          	sw	s5,4(s0)
    4dd4:	00549e13          	sll	t3,s1,0x5
    4dd8:	01ca02b3          	add	t0,s4,t3
    4ddc:	0182ad83          	lw	s11,24(t0)
    4de0:	01c2ad03          	lw	s10,28(t0)
    4de4:	05010793          	add	a5,sp,80
    4de8:	01c78f33          	add	t5,a5,t3
    4dec:	000f2303          	lw	t1,0(t5)
    4df0:	004f2383          	lw	t2,4(t5)
    4df4:	05810f13          	add	t5,sp,88
    4df8:	01cf0533          	add	a0,t5,t3
    4dfc:	01850413          	add	s0,a0,24
    4e00:	006db0b3          	sltu	ra,s11,t1
    4e04:	406d82b3          	sub	t0,s11,t1
    4e08:	407d08b3          	sub	a7,s10,t2
    4e0c:	401888b3          	sub	a7,a7,ra
    4e10:	0172b0b3          	sltu	ra,t0,s7
    4e14:	41728ab3          	sub	s5,t0,s7
    4e18:	40c88b33          	sub	s6,a7,a2
    4e1c:	401b0b33          	sub	s6,s6,ra
    4e20:	000d0693          	mv	a3,s10
    4e24:	000d8613          	mv	a2,s11
    4e28:	000b0593          	mv	a1,s6
    4e2c:	000a8513          	mv	a0,s5
    4e30:	e45fb0ef          	jal	c74 <FStar_UInt64_gte_mask>
    4e34:	00050c93          	mv	s9,a0
    4e38:	000d0693          	mv	a3,s10
    4e3c:	000d8613          	mv	a2,s11
    4e40:	000b0593          	mv	a1,s6
    4e44:	000a8513          	mv	a0,s5
    4e48:	dc9fb0ef          	jal	c10 <FStar_UInt64_eq_mask>
    4e4c:	00050c13          	mv	s8,a0
    4e50:	000d0693          	mv	a3,s10
    4e54:	000d8613          	mv	a2,s11
    4e58:	000b0593          	mv	a1,s6
    4e5c:	000a8513          	mv	a0,s5
    4e60:	db1fb0ef          	jal	c10 <FStar_UInt64_eq_mask>
    4e64:	fffc4693          	not	a3,s8
    4e68:	00dcf6b3          	and	a3,s9,a3
    4e6c:	017573b3          	and	t2,a0,s7
    4e70:	0076eeb3          	or	t4,a3,t2
    4e74:	00000293          	li	t0,0
    4e78:	001efc13          	and	s8,t4,1
    4e7c:	01542023          	sw	s5,0(s0)
    4e80:	01642223          	sw	s6,4(s0)
    4e84:	00148493          	add	s1,s1,1
    4e88:	00100f93          	li	t6,1
    4e8c:	d3f4eee3          	bltu	s1,t6,4bc8 <mont_reduction+0x23c>
    4e90:	018930b3          	sltu	ra,s2,s8
    4e94:	41890833          	sub	a6,s2,s8
    4e98:	405987b3          	sub	a5,s3,t0
    4e9c:	401787b3          	sub	a5,a5,ra
    4ea0:	00000513          	li	a0,0
    4ea4:	00078e13          	mv	t3,a5
    4ea8:	00351393          	sll	t2,a0,0x3
    4eac:	007a0eb3          	add	t4,s4,t2
    4eb0:	000ea583          	lw	a1,0(t4)
    4eb4:	004eaf03          	lw	t5,4(t4)
    4eb8:	01ee7733          	and	a4,t3,t5
    4ebc:	00080893          	mv	a7,a6
    4ec0:	00b8f333          	and	t1,a7,a1
    4ec4:	fffe4293          	not	t0,t3
    4ec8:	fff8c693          	not	a3,a7
    4ecc:	05810e13          	add	t3,sp,88
    4ed0:	007e05b3          	add	a1,t3,t2
    4ed4:	0005a603          	lw	a2,0(a1)
    4ed8:	0045a583          	lw	a1,4(a1)
    4edc:	00b2f3b3          	and	t2,t0,a1
    4ee0:	00c6ff33          	and	t5,a3,a2
    4ee4:	00776733          	or	a4,a4,t2
    4ee8:	01e366b3          	or	a3,t1,t5
    4eec:	00dea023          	sw	a3,0(t4)
    4ef0:	00eea223          	sw	a4,4(t4)
    4ef4:	00150513          	add	a0,a0,1
    4ef8:	00400f93          	li	t6,4
    4efc:	fbf564e3          	bltu	a0,t6,4ea4 <mont_reduction+0x518>
    4f00:	00812403          	lw	s0,8(sp)
    4f04:	00c12483          	lw	s1,12(sp)
    4f08:	01012903          	lw	s2,16(sp)
    4f0c:	01412983          	lw	s3,20(sp)
    4f10:	01812a03          	lw	s4,24(sp)
    4f14:	01c12a83          	lw	s5,28(sp)
    4f18:	02012b03          	lw	s6,32(sp)
    4f1c:	02412b83          	lw	s7,36(sp)
    4f20:	02812c03          	lw	s8,40(sp)
    4f24:	02c12c83          	lw	s9,44(sp)
    4f28:	03012d03          	lw	s10,48(sp)
    4f2c:	03412d83          	lw	s11,52(sp)
    4f30:	00412083          	lw	ra,4(sp)
    4f34:	08010113          	add	sp,sp,128
    4f38:	00008067          	ret

00004f3c <fmul>:
    4f3c:	00010f13          	mv	t5,sp
    4f40:	fb010113          	add	sp,sp,-80
    4f44:	01e12023          	sw	t5,0(sp)
    4f48:	00112223          	sw	ra,4(sp)
    4f4c:	00812423          	sw	s0,8(sp)
    4f50:	00050413          	mv	s0,a0
    4f54:	00000313          	li	t1,0
    4f58:	00000293          	li	t0,0
    4f5c:	00512823          	sw	t0,16(sp)
    4f60:	00612a23          	sw	t1,20(sp)
    4f64:	00512c23          	sw	t0,24(sp)
    4f68:	00612e23          	sw	t1,28(sp)
    4f6c:	02512023          	sw	t0,32(sp)
    4f70:	02612223          	sw	t1,36(sp)
    4f74:	02512423          	sw	t0,40(sp)
    4f78:	02612623          	sw	t1,44(sp)
    4f7c:	02512823          	sw	t0,48(sp)
    4f80:	02612a23          	sw	t1,52(sp)
    4f84:	02512c23          	sw	t0,56(sp)
    4f88:	02612e23          	sw	t1,60(sp)
    4f8c:	04512023          	sw	t0,64(sp)
    4f90:	04612223          	sw	t1,68(sp)
    4f94:	04512423          	sw	t0,72(sp)
    4f98:	04612623          	sw	t1,76(sp)
    4f9c:	01010513          	add	a0,sp,16
    4fa0:	d00fe0ef          	jal	34a0 <bn_mul4>
    4fa4:	01010593          	add	a1,sp,16
    4fa8:	00040513          	mv	a0,s0
    4fac:	9e1ff0ef          	jal	498c <mont_reduction>
    4fb0:	00812403          	lw	s0,8(sp)
    4fb4:	00412083          	lw	ra,4(sp)
    4fb8:	05010113          	add	sp,sp,80
    4fbc:	00008067          	ret

00004fc0 <fsqr>:
    4fc0:	00010f13          	mv	t5,sp
    4fc4:	fb010113          	add	sp,sp,-80
    4fc8:	01e12023          	sw	t5,0(sp)
    4fcc:	00112223          	sw	ra,4(sp)
    4fd0:	00812423          	sw	s0,8(sp)
    4fd4:	00050413          	mv	s0,a0
    4fd8:	00000313          	li	t1,0
    4fdc:	00000293          	li	t0,0
    4fe0:	00512823          	sw	t0,16(sp)
    4fe4:	00612a23          	sw	t1,20(sp)
    4fe8:	00512c23          	sw	t0,24(sp)
    4fec:	00612e23          	sw	t1,28(sp)
    4ff0:	02512023          	sw	t0,32(sp)
    4ff4:	02612223          	sw	t1,36(sp)
    4ff8:	02512423          	sw	t0,40(sp)
    4ffc:	02612623          	sw	t1,44(sp)
    5000:	02512823          	sw	t0,48(sp)
    5004:	02612a23          	sw	t1,52(sp)
    5008:	02512c23          	sw	t0,56(sp)
    500c:	02612e23          	sw	t1,60(sp)
    5010:	04512023          	sw	t0,64(sp)
    5014:	04612223          	sw	t1,68(sp)
    5018:	04512423          	sw	t0,72(sp)
    501c:	04612623          	sw	t1,76(sp)
    5020:	01010513          	add	a0,sp,16
    5024:	dfcfe0ef          	jal	3620 <bn_sqr4>
    5028:	01010593          	add	a1,sp,16
    502c:	00040513          	mv	a0,s0
    5030:	95dff0ef          	jal	498c <mont_reduction>
    5034:	00812403          	lw	s0,8(sp)
    5038:	00412083          	lw	ra,4(sp)
    503c:	05010113          	add	sp,sp,80
    5040:	00008067          	ret

00005044 <fmul_by_b_coeff>:
    5044:	00010f13          	mv	t5,sp
    5048:	fd010113          	add	sp,sp,-48
    504c:	01e12023          	sw	t5,0(sp)
    5050:	00112223          	sw	ra,4(sp)
    5054:	d89ce3b7          	lui	t2,0xd89ce
    5058:	f6238393          	add	t2,t2,-158 # d89cdf62 <_ebss+0xb89cd0a6>
    505c:	29c4c337          	lui	t1,0x29c4c
    5060:	ddf30313          	add	t1,t1,-545 # 29c4bddf <_ebss+0x9c4af23>
    5064:	00612423          	sw	t1,8(sp)
    5068:	00712623          	sw	t2,12(sp)
    506c:	acf007b7          	lui	a5,0xacf00
    5070:	5cd78793          	add	a5,a5,1485 # acf005cd <_ebss+0x8ceff711>
    5074:	78843737          	lui	a4,0x78843
    5078:	09070713          	add	a4,a4,144 # 78843090 <_ebss+0x588421d4>
    507c:	00e12823          	sw	a4,16(sp)
    5080:	00f12a23          	sw	a5,20(sp)
    5084:	e5a226b7          	lui	a3,0xe5a22
    5088:	0ab68693          	add	a3,a3,171 # e5a220ab <_ebss+0xc5a211ef>
    508c:	f7213637          	lui	a2,0xf7213
    5090:	ed660613          	add	a2,a2,-298 # f7212ed6 <_ebss+0xd721201a>
    5094:	00c12c23          	sw	a2,24(sp)
    5098:	00d12e23          	sw	a3,28(sp)
    509c:	dc3006b7          	lui	a3,0xdc300
    50a0:	61d68693          	add	a3,a3,1565 # dc30061d <_ebss+0xbc2ff761>
    50a4:	04875637          	lui	a2,0x4875
    50a8:	83460613          	add	a2,a2,-1996 # 4874834 <_erodata+0x486b1b4>
    50ac:	02c12023          	sw	a2,32(sp)
    50b0:	02d12223          	sw	a3,36(sp)
    50b4:	00810293          	add	t0,sp,8
    50b8:	00058613          	mv	a2,a1
    50bc:	00028593          	mv	a1,t0
    50c0:	e7dff0ef          	jal	4f3c <fmul>
    50c4:	00412083          	lw	ra,4(sp)
    50c8:	03010113          	add	sp,sp,48
    50cc:	00008067          	ret

000050d0 <point_add>:
    50d0:	00010f13          	mv	t5,sp
    50d4:	e9010113          	add	sp,sp,-368
    50d8:	01e12023          	sw	t5,0(sp)
    50dc:	00112223          	sw	ra,4(sp)
    50e0:	00812423          	sw	s0,8(sp)
    50e4:	00912623          	sw	s1,12(sp)
    50e8:	01212823          	sw	s2,16(sp)
    50ec:	01312a23          	sw	s3,20(sp)
    50f0:	01412c23          	sw	s4,24(sp)
    50f4:	01512e23          	sw	s5,28(sp)
    50f8:	03612023          	sw	s6,32(sp)
    50fc:	03712223          	sw	s7,36(sp)
    5100:	03812423          	sw	s8,40(sp)
    5104:	03912623          	sw	s9,44(sp)
    5108:	03a12823          	sw	s10,48(sp)
    510c:	03b12a23          	sw	s11,52(sp)
    5110:	00060c13          	mv	s8,a2
    5114:	00058b13          	mv	s6,a1
    5118:	04a12223          	sw	a0,68(sp)
    511c:	00000713          	li	a4,0
    5120:	00000693          	li	a3,0
    5124:	04d12823          	sw	a3,80(sp)
    5128:	04e12a23          	sw	a4,84(sp)
    512c:	04d12c23          	sw	a3,88(sp)
    5130:	04e12e23          	sw	a4,92(sp)
    5134:	06d12023          	sw	a3,96(sp)
    5138:	06e12223          	sw	a4,100(sp)
    513c:	06d12423          	sw	a3,104(sp)
    5140:	06e12623          	sw	a4,108(sp)
    5144:	06d12823          	sw	a3,112(sp)
    5148:	06e12a23          	sw	a4,116(sp)
    514c:	06d12c23          	sw	a3,120(sp)
    5150:	06e12e23          	sw	a4,124(sp)
    5154:	08d12023          	sw	a3,128(sp)
    5158:	08e12223          	sw	a4,132(sp)
    515c:	08d12423          	sw	a3,136(sp)
    5160:	08e12623          	sw	a4,140(sp)
    5164:	08d12823          	sw	a3,144(sp)
    5168:	08e12a23          	sw	a4,148(sp)
    516c:	08d12c23          	sw	a3,152(sp)
    5170:	08e12e23          	sw	a4,156(sp)
    5174:	0ad12023          	sw	a3,160(sp)
    5178:	0ae12223          	sw	a4,164(sp)
    517c:	0ad12423          	sw	a3,168(sp)
    5180:	0ae12623          	sw	a4,172(sp)
    5184:	0ad12823          	sw	a3,176(sp)
    5188:	0ae12a23          	sw	a4,180(sp)
    518c:	0ad12c23          	sw	a3,184(sp)
    5190:	0ae12e23          	sw	a4,188(sp)
    5194:	0cd12023          	sw	a3,192(sp)
    5198:	0ce12223          	sw	a4,196(sp)
    519c:	0cd12423          	sw	a3,200(sp)
    51a0:	0ce12623          	sw	a4,204(sp)
    51a4:	0cd12823          	sw	a3,208(sp)
    51a8:	0ce12a23          	sw	a4,212(sp)
    51ac:	0cd12c23          	sw	a3,216(sp)
    51b0:	0ce12e23          	sw	a4,220(sp)
    51b4:	0ed12023          	sw	a3,224(sp)
    51b8:	0ee12223          	sw	a4,228(sp)
    51bc:	0ed12423          	sw	a3,232(sp)
    51c0:	0ee12623          	sw	a4,236(sp)
    51c4:	0ed12823          	sw	a3,240(sp)
    51c8:	0ee12a23          	sw	a4,244(sp)
    51cc:	0ed12c23          	sw	a3,248(sp)
    51d0:	0ee12e23          	sw	a4,252(sp)
    51d4:	10d12023          	sw	a3,256(sp)
    51d8:	10e12223          	sw	a4,260(sp)
    51dc:	10d12423          	sw	a3,264(sp)
    51e0:	10e12623          	sw	a4,268(sp)
    51e4:	10d12823          	sw	a3,272(sp)
    51e8:	10e12a23          	sw	a4,276(sp)
    51ec:	10d12c23          	sw	a3,280(sp)
    51f0:	10e12e23          	sw	a4,284(sp)
    51f4:	12d12023          	sw	a3,288(sp)
    51f8:	12e12223          	sw	a4,292(sp)
    51fc:	12d12423          	sw	a3,296(sp)
    5200:	12e12623          	sw	a4,300(sp)
    5204:	12d12823          	sw	a3,304(sp)
    5208:	12e12a23          	sw	a4,308(sp)
    520c:	12d12c23          	sw	a3,312(sp)
    5210:	12e12e23          	sw	a4,316(sp)
    5214:	14d12023          	sw	a3,320(sp)
    5218:	14e12223          	sw	a4,324(sp)
    521c:	14d12423          	sw	a3,328(sp)
    5220:	14e12623          	sw	a4,332(sp)
    5224:	14d12823          	sw	a3,336(sp)
    5228:	14e12a23          	sw	a4,340(sp)
    522c:	14d12c23          	sw	a3,344(sp)
    5230:	14e12e23          	sw	a4,348(sp)
    5234:	16d12023          	sw	a3,352(sp)
    5238:	16e12223          	sw	a4,356(sp)
    523c:	16d12423          	sw	a3,360(sp)
    5240:	16e12623          	sw	a4,364(sp)
    5244:	11010393          	add	t2,sp,272
    5248:	04712423          	sw	t2,72(sp)
    524c:	11010c93          	add	s9,sp,272
    5250:	13010a13          	add	s4,sp,304
    5254:	15010993          	add	s3,sp,336
    5258:	05010b93          	add	s7,sp,80
    525c:	07010913          	add	s2,sp,112
    5260:	09010493          	add	s1,sp,144
    5264:	0b010d13          	add	s10,sp,176
    5268:	0d010a93          	add	s5,sp,208
    526c:	0f010613          	add	a2,sp,240
    5270:	02c12c23          	sw	a2,56(sp)
    5274:	020b0413          	add	s0,s6,32
    5278:	040b0313          	add	t1,s6,64
    527c:	02612e23          	sw	t1,60(sp)
    5280:	020c0d93          	add	s11,s8,32
    5284:	040c0593          	add	a1,s8,64
    5288:	04b12023          	sw	a1,64(sp)
    528c:	000c0613          	mv	a2,s8
    5290:	000b0593          	mv	a1,s6
    5294:	000b8513          	mv	a0,s7
    5298:	ca5ff0ef          	jal	4f3c <fmul>
    529c:	000d8613          	mv	a2,s11
    52a0:	00040593          	mv	a1,s0
    52a4:	00090513          	mv	a0,s2
    52a8:	c95ff0ef          	jal	4f3c <fmul>
    52ac:	04012603          	lw	a2,64(sp)
    52b0:	03c12583          	lw	a1,60(sp)
    52b4:	00048513          	mv	a0,s1
    52b8:	c85ff0ef          	jal	4f3c <fmul>
    52bc:	00040613          	mv	a2,s0
    52c0:	000b0593          	mv	a1,s6
    52c4:	000d0513          	mv	a0,s10
    52c8:	fcdfe0ef          	jal	4294 <fadd>
    52cc:	000d8613          	mv	a2,s11
    52d0:	000c0593          	mv	a1,s8
    52d4:	000a8513          	mv	a0,s5
    52d8:	fbdfe0ef          	jal	4294 <fadd>
    52dc:	000a8613          	mv	a2,s5
    52e0:	000d0593          	mv	a1,s10
    52e4:	000d0513          	mv	a0,s10
    52e8:	c55ff0ef          	jal	4f3c <fmul>
    52ec:	00090613          	mv	a2,s2
    52f0:	000b8593          	mv	a1,s7
    52f4:	000a8513          	mv	a0,s5
    52f8:	f9dfe0ef          	jal	4294 <fadd>
    52fc:	020b0293          	add	t0,s6,32
    5300:	04512023          	sw	t0,64(sp)
    5304:	040b0413          	add	s0,s6,64
    5308:	020c0513          	add	a0,s8,32
    530c:	02a12e23          	sw	a0,60(sp)
    5310:	040c0d93          	add	s11,s8,64
    5314:	000a8613          	mv	a2,s5
    5318:	000d0593          	mv	a1,s10
    531c:	000d0513          	mv	a0,s10
    5320:	ff9fe0ef          	jal	4318 <fsub>
    5324:	00040613          	mv	a2,s0
    5328:	04012583          	lw	a1,64(sp)
    532c:	000a8513          	mv	a0,s5
    5330:	f65fe0ef          	jal	4294 <fadd>
    5334:	000d8613          	mv	a2,s11
    5338:	03c12583          	lw	a1,60(sp)
    533c:	03812503          	lw	a0,56(sp)
    5340:	f55fe0ef          	jal	4294 <fadd>
    5344:	03812603          	lw	a2,56(sp)
    5348:	000a8593          	mv	a1,s5
    534c:	000a8513          	mv	a0,s5
    5350:	bedff0ef          	jal	4f3c <fmul>
    5354:	00048613          	mv	a2,s1
    5358:	00090593          	mv	a1,s2
    535c:	03812503          	lw	a0,56(sp)
    5360:	f35fe0ef          	jal	4294 <fadd>
    5364:	03812603          	lw	a2,56(sp)
    5368:	000a8593          	mv	a1,s5
    536c:	000a8513          	mv	a0,s5
    5370:	fa9fe0ef          	jal	4318 <fsub>
    5374:	000b0593          	mv	a1,s6
    5378:	040b0613          	add	a2,s6,64
    537c:	040c0413          	add	s0,s8,64
    5380:	000c8513          	mv	a0,s9
    5384:	f11fe0ef          	jal	4294 <fadd>
    5388:	00040613          	mv	a2,s0
    538c:	000c0593          	mv	a1,s8
    5390:	000a0513          	mv	a0,s4
    5394:	f01fe0ef          	jal	4294 <fadd>
    5398:	000a0613          	mv	a2,s4
    539c:	000c8593          	mv	a1,s9
    53a0:	000c8513          	mv	a0,s9
    53a4:	b99ff0ef          	jal	4f3c <fmul>
    53a8:	00048613          	mv	a2,s1
    53ac:	000b8593          	mv	a1,s7
    53b0:	000a0513          	mv	a0,s4
    53b4:	ee1fe0ef          	jal	4294 <fadd>
    53b8:	000a0613          	mv	a2,s4
    53bc:	000c8593          	mv	a1,s9
    53c0:	000a0513          	mv	a0,s4
    53c4:	f55fe0ef          	jal	4318 <fsub>
    53c8:	00048593          	mv	a1,s1
    53cc:	00098513          	mv	a0,s3
    53d0:	c75ff0ef          	jal	5044 <fmul_by_b_coeff>
    53d4:	00098613          	mv	a2,s3
    53d8:	000a0593          	mv	a1,s4
    53dc:	000c8513          	mv	a0,s9
    53e0:	f39fe0ef          	jal	4318 <fsub>
    53e4:	000c8613          	mv	a2,s9
    53e8:	000c8593          	mv	a1,s9
    53ec:	00098513          	mv	a0,s3
    53f0:	ea5fe0ef          	jal	4294 <fadd>
    53f4:	00098613          	mv	a2,s3
    53f8:	000c8593          	mv	a1,s9
    53fc:	000c8513          	mv	a0,s9
    5400:	e95fe0ef          	jal	4294 <fadd>
    5404:	000c8613          	mv	a2,s9
    5408:	00090593          	mv	a1,s2
    540c:	00098513          	mv	a0,s3
    5410:	f09fe0ef          	jal	4318 <fsub>
    5414:	000c8613          	mv	a2,s9
    5418:	00090593          	mv	a1,s2
    541c:	000c8513          	mv	a0,s9
    5420:	e75fe0ef          	jal	4294 <fadd>
    5424:	000a0593          	mv	a1,s4
    5428:	000a0513          	mv	a0,s4
    542c:	c19ff0ef          	jal	5044 <fmul_by_b_coeff>
    5430:	00048613          	mv	a2,s1
    5434:	00048593          	mv	a1,s1
    5438:	00090513          	mv	a0,s2
    543c:	e59fe0ef          	jal	4294 <fadd>
    5440:	00048613          	mv	a2,s1
    5444:	00090593          	mv	a1,s2
    5448:	00048513          	mv	a0,s1
    544c:	e49fe0ef          	jal	4294 <fadd>
    5450:	00048613          	mv	a2,s1
    5454:	000a0593          	mv	a1,s4
    5458:	000a0513          	mv	a0,s4
    545c:	ebdfe0ef          	jal	4318 <fsub>
    5460:	000b8613          	mv	a2,s7
    5464:	000a0593          	mv	a1,s4
    5468:	000a0513          	mv	a0,s4
    546c:	eadfe0ef          	jal	4318 <fsub>
    5470:	000a0613          	mv	a2,s4
    5474:	000a0593          	mv	a1,s4
    5478:	00090513          	mv	a0,s2
    547c:	e19fe0ef          	jal	4294 <fadd>
    5480:	000a0613          	mv	a2,s4
    5484:	00090593          	mv	a1,s2
    5488:	000a0513          	mv	a0,s4
    548c:	e09fe0ef          	jal	4294 <fadd>
    5490:	000b8613          	mv	a2,s7
    5494:	000b8593          	mv	a1,s7
    5498:	00090513          	mv	a0,s2
    549c:	df9fe0ef          	jal	4294 <fadd>
    54a0:	000b8613          	mv	a2,s7
    54a4:	00090593          	mv	a1,s2
    54a8:	000b8513          	mv	a0,s7
    54ac:	de9fe0ef          	jal	4294 <fadd>
    54b0:	00048613          	mv	a2,s1
    54b4:	000b8593          	mv	a1,s7
    54b8:	000b8513          	mv	a0,s7
    54bc:	e5dfe0ef          	jal	4318 <fsub>
    54c0:	000a0613          	mv	a2,s4
    54c4:	000a8593          	mv	a1,s5
    54c8:	00090513          	mv	a0,s2
    54cc:	a71ff0ef          	jal	4f3c <fmul>
    54d0:	000a0613          	mv	a2,s4
    54d4:	000b8593          	mv	a1,s7
    54d8:	00048513          	mv	a0,s1
    54dc:	a61ff0ef          	jal	4f3c <fmul>
    54e0:	00098613          	mv	a2,s3
    54e4:	000c8593          	mv	a1,s9
    54e8:	000a0513          	mv	a0,s4
    54ec:	a51ff0ef          	jal	4f3c <fmul>
    54f0:	00048613          	mv	a2,s1
    54f4:	000a0593          	mv	a1,s4
    54f8:	000a0513          	mv	a0,s4
    54fc:	d99fe0ef          	jal	4294 <fadd>
    5500:	000c8613          	mv	a2,s9
    5504:	000d0593          	mv	a1,s10
    5508:	000c8513          	mv	a0,s9
    550c:	a31ff0ef          	jal	4f3c <fmul>
    5510:	00090613          	mv	a2,s2
    5514:	000c8593          	mv	a1,s9
    5518:	000c8513          	mv	a0,s9
    551c:	dfdfe0ef          	jal	4318 <fsub>
    5520:	00098613          	mv	a2,s3
    5524:	000a8593          	mv	a1,s5
    5528:	00098513          	mv	a0,s3
    552c:	a11ff0ef          	jal	4f3c <fmul>
    5530:	000b8613          	mv	a2,s7
    5534:	000d0593          	mv	a1,s10
    5538:	00090513          	mv	a0,s2
    553c:	a01ff0ef          	jal	4f3c <fmul>
    5540:	00090613          	mv	a2,s2
    5544:	00098593          	mv	a1,s3
    5548:	00098513          	mv	a0,s3
    554c:	d49fe0ef          	jal	4294 <fadd>
    5550:	06000613          	li	a2,96
    5554:	04812583          	lw	a1,72(sp)
    5558:	04412503          	lw	a0,68(sp)
    555c:	e0dfa0ef          	jal	368 <memcpy>
    5560:	00812403          	lw	s0,8(sp)
    5564:	00c12483          	lw	s1,12(sp)
    5568:	01012903          	lw	s2,16(sp)
    556c:	01412983          	lw	s3,20(sp)
    5570:	01812a03          	lw	s4,24(sp)
    5574:	01c12a83          	lw	s5,28(sp)
    5578:	02012b03          	lw	s6,32(sp)
    557c:	02412b83          	lw	s7,36(sp)
    5580:	02812c03          	lw	s8,40(sp)
    5584:	02c12c83          	lw	s9,44(sp)
    5588:	03012d03          	lw	s10,48(sp)
    558c:	03412d83          	lw	s11,52(sp)
    5590:	00412083          	lw	ra,4(sp)
    5594:	17010113          	add	sp,sp,368
    5598:	00008067          	ret

0000559c <precomp_get_consttime>:
    559c:	00010f13          	mv	t5,sp
    55a0:	fe010113          	add	sp,sp,-32
    55a4:	01e12023          	sw	t5,0(sp)
    55a8:	00112223          	sw	ra,4(sp)
    55ac:	00812423          	sw	s0,8(sp)
    55b0:	00912623          	sw	s1,12(sp)
    55b4:	01212823          	sw	s2,16(sp)
    55b8:	01312a23          	sw	s3,20(sp)
    55bc:	01412c23          	sw	s4,24(sp)
    55c0:	00068413          	mv	s0,a3
    55c4:	00060a13          	mv	s4,a2
    55c8:	00058913          	mv	s2,a1
    55cc:	00050493          	mv	s1,a0
    55d0:	06000613          	li	a2,96
    55d4:	00048593          	mv	a1,s1
    55d8:	00040513          	mv	a0,s0
    55dc:	d8dfa0ef          	jal	368 <memcpy>
    55e0:	00000993          	li	s3,0
    55e4:	00000693          	li	a3,0
    55e8:	00198613          	add	a2,s3,1
    55ec:	000a0593          	mv	a1,s4
    55f0:	00090513          	mv	a0,s2
    55f4:	e1cfb0ef          	jal	c10 <FStar_UInt64_eq_mask>
    55f8:	00299e93          	sll	t4,s3,0x2
    55fc:	00399793          	sll	a5,s3,0x3
    5600:	00fe8733          	add	a4,t4,a5
    5604:	00371893          	sll	a7,a4,0x3
    5608:	01148633          	add	a2,s1,a7
    560c:	06060793          	add	a5,a2,96
    5610:	00000813          	li	a6,0
    5614:	00058713          	mv	a4,a1
    5618:	00050613          	mv	a2,a0
    561c:	00381393          	sll	t2,a6,0x3
    5620:	00778e33          	add	t3,a5,t2
    5624:	000e2683          	lw	a3,0(t3)
    5628:	004e2883          	lw	a7,4(t3)
    562c:	01177333          	and	t1,a4,a7
    5630:	00d672b3          	and	t0,a2,a3
    5634:	fff74e13          	not	t3,a4
    5638:	fff64893          	not	a7,a2
    563c:	00740f33          	add	t5,s0,t2
    5640:	000f2683          	lw	a3,0(t5)
    5644:	004f2603          	lw	a2,4(t5)
    5648:	00ce7633          	and	a2,t3,a2
    564c:	00d8f3b3          	and	t2,a7,a3
    5650:	00c36333          	or	t1,t1,a2
    5654:	0072eeb3          	or	t4,t0,t2
    5658:	01df2023          	sw	t4,0(t5)
    565c:	006f2223          	sw	t1,4(t5)
    5660:	00180813          	add	a6,a6,1
    5664:	00c00f93          	li	t6,12
    5668:	fbf866e3          	bltu	a6,t6,5614 <precomp_get_consttime+0x78>
    566c:	00198993          	add	s3,s3,1
    5670:	00f00f93          	li	t6,15
    5674:	f7f9e8e3          	bltu	s3,t6,55e4 <precomp_get_consttime+0x48>
    5678:	00812403          	lw	s0,8(sp)
    567c:	00c12483          	lw	s1,12(sp)
    5680:	01012903          	lw	s2,16(sp)
    5684:	01412983          	lw	s3,20(sp)
    5688:	01812a03          	lw	s4,24(sp)
    568c:	00412083          	lw	ra,4(sp)
    5690:	02010113          	add	sp,sp,32
    5694:	00008067          	ret

00005698 <bn_is_lt_order_and_gt_zero_mask4>:
    5698:	00010f13          	mv	t5,sp
    569c:	fc010113          	add	sp,sp,-64
    56a0:	01e12023          	sw	t5,0(sp)
    56a4:	00112223          	sw	ra,4(sp)
    56a8:	00812423          	sw	s0,8(sp)
    56ac:	00912623          	sw	s1,12(sp)
    56b0:	01212823          	sw	s2,16(sp)
    56b4:	00050493          	mv	s1,a0
    56b8:	00000313          	li	t1,0
    56bc:	00000293          	li	t0,0
    56c0:	00512c23          	sw	t0,24(sp)
    56c4:	00612e23          	sw	t1,28(sp)
    56c8:	02512023          	sw	t0,32(sp)
    56cc:	02612223          	sw	t1,36(sp)
    56d0:	02512423          	sw	t0,40(sp)
    56d4:	02612623          	sw	t1,44(sp)
    56d8:	02512823          	sw	t0,48(sp)
    56dc:	02612a23          	sw	t1,52(sp)
    56e0:	01810513          	add	a0,sp,24
    56e4:	aa5fe0ef          	jal	4188 <make_order>
    56e8:	01810513          	add	a0,sp,24
    56ec:	01810613          	add	a2,sp,24
    56f0:	00048593          	mv	a1,s1
    56f4:	a69fd0ef          	jal	315c <bn_sub4>
    56f8:	00a030b3          	snez	ra,a0
    56fc:	40a00933          	neg	s2,a0
    5700:	40b00433          	neg	s0,a1
    5704:	40140433          	sub	s0,s0,ra
    5708:	00048513          	mv	a0,s1
    570c:	b58fd0ef          	jal	2a64 <bn_is_zero_mask4>
    5710:	fff5c593          	not	a1,a1
    5714:	fff54393          	not	t2,a0
    5718:	00b475b3          	and	a1,s0,a1
    571c:	00797533          	and	a0,s2,t2
    5720:	00812403          	lw	s0,8(sp)
    5724:	00c12483          	lw	s1,12(sp)
    5728:	01012903          	lw	s2,16(sp)
    572c:	00412083          	lw	ra,4(sp)
    5730:	04010113          	add	sp,sp,64
    5734:	00008067          	ret

00005738 <qmod_short>:
    5738:	00010f13          	mv	t5,sp
    573c:	fc010113          	add	sp,sp,-64
    5740:	01e12023          	sw	t5,0(sp)
    5744:	00112223          	sw	ra,4(sp)
    5748:	00812423          	sw	s0,8(sp)
    574c:	00912623          	sw	s1,12(sp)
    5750:	01212823          	sw	s2,16(sp)
    5754:	00058493          	mv	s1,a1
    5758:	00050413          	mv	s0,a0
    575c:	00000813          	li	a6,0
    5760:	00000793          	li	a5,0
    5764:	00f12c23          	sw	a5,24(sp)
    5768:	01012e23          	sw	a6,28(sp)
    576c:	02f12023          	sw	a5,32(sp)
    5770:	03012223          	sw	a6,36(sp)
    5774:	02f12423          	sw	a5,40(sp)
    5778:	03012623          	sw	a6,44(sp)
    577c:	02f12823          	sw	a5,48(sp)
    5780:	03012a23          	sw	a6,52(sp)
    5784:	01810513          	add	a0,sp,24
    5788:	a01fe0ef          	jal	4188 <make_order>
    578c:	01810513          	add	a0,sp,24
    5790:	01810613          	add	a2,sp,24
    5794:	00048593          	mv	a1,s1
    5798:	9c5fd0ef          	jal	315c <bn_sub4>
    579c:	01810913          	add	s2,sp,24
    57a0:	00000693          	li	a3,0
    57a4:	00000613          	li	a2,0
    57a8:	c68fb0ef          	jal	c10 <FStar_UInt64_eq_mask>
    57ac:	fff5c593          	not	a1,a1
    57b0:	fff54513          	not	a0,a0
    57b4:	00000f13          	li	t5,0
    57b8:	003f1293          	sll	t0,t5,0x3
    57bc:	005908b3          	add	a7,s2,t0
    57c0:	0008a603          	lw	a2,0(a7)
    57c4:	0048a303          	lw	t1,4(a7)
    57c8:	00058393          	mv	t2,a1
    57cc:	00548e33          	add	t3,s1,t0
    57d0:	000e2783          	lw	a5,0(t3)
    57d4:	004e2703          	lw	a4,4(t3)
    57d8:	006746b3          	xor	a3,a4,t1
    57dc:	00c7ceb3          	xor	t4,a5,a2
    57e0:	00d3f6b3          	and	a3,t2,a3
    57e4:	00050893          	mv	a7,a0
    57e8:	01d8fe33          	and	t3,a7,t4
    57ec:	00d343b3          	xor	t2,t1,a3
    57f0:	01c64333          	xor	t1,a2,t3
    57f4:	005406b3          	add	a3,s0,t0
    57f8:	0066a023          	sw	t1,0(a3)
    57fc:	0076a223          	sw	t2,4(a3)
    5800:	001f0f13          	add	t5,t5,1
    5804:	00400f93          	li	t6,4
    5808:	fbff68e3          	bltu	t5,t6,57b8 <qmod_short+0x80>
    580c:	00812403          	lw	s0,8(sp)
    5810:	00c12483          	lw	s1,12(sp)
    5814:	01012903          	lw	s2,16(sp)
    5818:	00412083          	lw	ra,4(sp)
    581c:	04010113          	add	sp,sp,64
    5820:	00008067          	ret

00005824 <qmont_reduction>:
    5824:	00010f13          	mv	t5,sp
    5828:	f8010113          	add	sp,sp,-128
    582c:	01e12023          	sw	t5,0(sp)
    5830:	00112223          	sw	ra,4(sp)
    5834:	00812423          	sw	s0,8(sp)
    5838:	00912623          	sw	s1,12(sp)
    583c:	01212823          	sw	s2,16(sp)
    5840:	01312a23          	sw	s3,20(sp)
    5844:	01412c23          	sw	s4,24(sp)
    5848:	01512e23          	sw	s5,28(sp)
    584c:	03612023          	sw	s6,32(sp)
    5850:	03712223          	sw	s7,36(sp)
    5854:	03812423          	sw	s8,40(sp)
    5858:	03912623          	sw	s9,44(sp)
    585c:	03a12823          	sw	s10,48(sp)
    5860:	03b12a23          	sw	s11,52(sp)
    5864:	00058b13          	mv	s6,a1
    5868:	00050a13          	mv	s4,a0
    586c:	00000893          	li	a7,0
    5870:	00000813          	li	a6,0
    5874:	03012c23          	sw	a6,56(sp)
    5878:	03112e23          	sw	a7,60(sp)
    587c:	05012023          	sw	a6,64(sp)
    5880:	05112223          	sw	a7,68(sp)
    5884:	05012423          	sw	a6,72(sp)
    5888:	05112623          	sw	a7,76(sp)
    588c:	05012823          	sw	a6,80(sp)
    5890:	05112a23          	sw	a7,84(sp)
    5894:	03810513          	add	a0,sp,56
    5898:	8f1fe0ef          	jal	4188 <make_order>
    589c:	00000993          	li	s3,0
    58a0:	00000913          	li	s2,0
    58a4:	00000a93          	li	s5,0
    58a8:	003a9593          	sll	a1,s5,0x3
    58ac:	00bb0bb3          	add	s7,s6,a1
    58b0:	000ba683          	lw	a3,0(s7)
    58b4:	004ba783          	lw	a5,4(s7)
    58b8:	ee00ceb7          	lui	t4,0xee00c
    58bc:	c4fe8e93          	add	t4,t4,-945 # ee00bc4f <_ebss+0xce00ad93>
    58c0:	03d684b3          	mul	s1,a3,t4
    58c4:	03d6bf33          	mulhu	t5,a3,t4
    58c8:	ccd1d837          	lui	a6,0xccd1d
    58cc:	8aa80813          	add	a6,a6,-1878 # ccd1c8aa <_ebss+0xacd1b9ee>
    58d0:	03068833          	mul	a6,a3,a6
    58d4:	010f0833          	add	a6,t5,a6
    58d8:	03d78533          	mul	a0,a5,t4
    58dc:	00a80433          	add	s0,a6,a0
    58e0:	00000593          	li	a1,0
    58e4:	00000513          	li	a0,0
    58e8:	00000c13          	li	s8,0
    58ec:	03810313          	add	t1,sp,56
    58f0:	005c1793          	sll	a5,s8,0x5
    58f4:	00f30833          	add	a6,t1,a5
    58f8:	00082303          	lw	t1,0(a6)
    58fc:	00482283          	lw	t0,4(a6)
    5900:	00fb8833          	add	a6,s7,a5
    5904:	00058793          	mv	a5,a1
    5908:	00050713          	mv	a4,a0
    590c:	00040693          	mv	a3,s0
    5910:	00048613          	mv	a2,s1
    5914:	00028593          	mv	a1,t0
    5918:	00030513          	mv	a0,t1
    591c:	bf4fc0ef          	jal	1d10 <mul_wide_add2_u64>
    5920:	00058793          	mv	a5,a1
    5924:	00050713          	mv	a4,a0
    5928:	04010813          	add	a6,sp,64
    592c:	005c1893          	sll	a7,s8,0x5
    5930:	011803b3          	add	t2,a6,a7
    5934:	0003a503          	lw	a0,0(t2)
    5938:	0043a583          	lw	a1,4(t2)
    593c:	011b82b3          	add	t0,s7,a7
    5940:	00828813          	add	a6,t0,8
    5944:	00040693          	mv	a3,s0
    5948:	00048613          	mv	a2,s1
    594c:	bc4fc0ef          	jal	1d10 <mul_wide_add2_u64>
    5950:	00058793          	mv	a5,a1
    5954:	00050713          	mv	a4,a0
    5958:	04810693          	add	a3,sp,72
    595c:	005c1e93          	sll	t4,s8,0x5
    5960:	01d688b3          	add	a7,a3,t4
    5964:	0008a503          	lw	a0,0(a7)
    5968:	0048a583          	lw	a1,4(a7)
    596c:	01db8633          	add	a2,s7,t4
    5970:	01060813          	add	a6,a2,16
    5974:	00040693          	mv	a3,s0
    5978:	00048613          	mv	a2,s1
    597c:	b94fc0ef          	jal	1d10 <mul_wide_add2_u64>
    5980:	00058793          	mv	a5,a1
    5984:	00050713          	mv	a4,a0
    5988:	05010e13          	add	t3,sp,80
    598c:	005c1813          	sll	a6,s8,0x5
    5990:	010e0e33          	add	t3,t3,a6
    5994:	000e2503          	lw	a0,0(t3)
    5998:	004e2583          	lw	a1,4(t3)
    599c:	010b8eb3          	add	t4,s7,a6
    59a0:	018e8813          	add	a6,t4,24
    59a4:	00040693          	mv	a3,s0
    59a8:	00048613          	mv	a2,s1
    59ac:	b64fc0ef          	jal	1d10 <mul_wide_add2_u64>
    59b0:	001c0c13          	add	s8,s8,1
    59b4:	00100f93          	li	t6,1
    59b8:	f3fc6ae3          	bltu	s8,t6,58ec <qmont_reduction+0xc8>
    59bc:	00058493          	mv	s1,a1
    59c0:	00050413          	mv	s0,a0
    59c4:	003a9293          	sll	t0,s5,0x3
    59c8:	005b0733          	add	a4,s6,t0
    59cc:	02070c93          	add	s9,a4,32
    59d0:	02072e83          	lw	t4,32(a4)
    59d4:	02472f03          	lw	t5,36(a4)
    59d8:	012406b3          	add	a3,s0,s2
    59dc:	0126b0b3          	sltu	ra,a3,s2
    59e0:	01348633          	add	a2,s1,s3
    59e4:	00160633          	add	a2,a2,ra
    59e8:	01d68c33          	add	s8,a3,t4
    59ec:	01dc30b3          	sltu	ra,s8,t4
    59f0:	01e60bb3          	add	s7,a2,t5
    59f4:	001b8bb3          	add	s7,s7,ra
    59f8:	00048693          	mv	a3,s1
    59fc:	00040613          	mv	a2,s0
    5a00:	000b8593          	mv	a1,s7
    5a04:	000c0513          	mv	a0,s8
    5a08:	a6cfb0ef          	jal	c74 <FStar_UInt64_gte_mask>
    5a0c:	00050993          	mv	s3,a0
    5a10:	00048693          	mv	a3,s1
    5a14:	00040613          	mv	a2,s0
    5a18:	000b8593          	mv	a1,s7
    5a1c:	000c0513          	mv	a0,s8
    5a20:	9f0fb0ef          	jal	c10 <FStar_UInt64_eq_mask>
    5a24:	fff9c593          	not	a1,s3
    5a28:	01257733          	and	a4,a0,s2
    5a2c:	00e5ee33          	or	t3,a1,a4
    5a30:	00000993          	li	s3,0
    5a34:	001e7913          	and	s2,t3,1
    5a38:	018ca023          	sw	s8,0(s9)
    5a3c:	017ca223          	sw	s7,4(s9)
    5a40:	001a8a93          	add	s5,s5,1
    5a44:	00400f93          	li	t6,4
    5a48:	e7fae0e3          	bltu	s5,t6,58a8 <qmont_reduction+0x84>
    5a4c:	020b0593          	add	a1,s6,32
    5a50:	02000613          	li	a2,32
    5a54:	000a0513          	mv	a0,s4
    5a58:	911fa0ef          	jal	368 <memcpy>
    5a5c:	00000313          	li	t1,0
    5a60:	00000c13          	li	s8,0
    5a64:	05812c23          	sw	s8,88(sp)
    5a68:	04612e23          	sw	t1,92(sp)
    5a6c:	07812023          	sw	s8,96(sp)
    5a70:	06612223          	sw	t1,100(sp)
    5a74:	07812423          	sw	s8,104(sp)
    5a78:	06612623          	sw	t1,108(sp)
    5a7c:	07812823          	sw	s8,112(sp)
    5a80:	06612a23          	sw	t1,116(sp)
    5a84:	00000493          	li	s1,0
    5a88:	00549793          	sll	a5,s1,0x5
    5a8c:	00fa02b3          	add	t0,s4,a5
    5a90:	0002ad03          	lw	s10,0(t0)
    5a94:	0042ad83          	lw	s11,4(t0)
    5a98:	03810693          	add	a3,sp,56
    5a9c:	00f68f33          	add	t5,a3,a5
    5aa0:	000f2503          	lw	a0,0(t5)
    5aa4:	004f2583          	lw	a1,4(t5)
    5aa8:	05810893          	add	a7,sp,88
    5aac:	00f88b33          	add	s6,a7,a5
    5ab0:	00ad30b3          	sltu	ra,s10,a0
    5ab4:	40ad0eb3          	sub	t4,s10,a0
    5ab8:	40bd8733          	sub	a4,s11,a1
    5abc:	40170733          	sub	a4,a4,ra
    5ac0:	018eb0b3          	sltu	ra,t4,s8
    5ac4:	418e8cb3          	sub	s9,t4,s8
    5ac8:	40670bb3          	sub	s7,a4,t1
    5acc:	401b8bb3          	sub	s7,s7,ra
    5ad0:	000d8693          	mv	a3,s11
    5ad4:	000d0613          	mv	a2,s10
    5ad8:	000b8593          	mv	a1,s7
    5adc:	000c8513          	mv	a0,s9
    5ae0:	994fb0ef          	jal	c74 <FStar_UInt64_gte_mask>
    5ae4:	00050a93          	mv	s5,a0
    5ae8:	000d8693          	mv	a3,s11
    5aec:	000d0613          	mv	a2,s10
    5af0:	000b8593          	mv	a1,s7
    5af4:	000c8513          	mv	a0,s9
    5af8:	918fb0ef          	jal	c10 <FStar_UInt64_eq_mask>
    5afc:	00050413          	mv	s0,a0
    5b00:	000d8693          	mv	a3,s11
    5b04:	000d0613          	mv	a2,s10
    5b08:	000b8593          	mv	a1,s7
    5b0c:	000c8513          	mv	a0,s9
    5b10:	900fb0ef          	jal	c10 <FStar_UInt64_eq_mask>
    5b14:	fff44613          	not	a2,s0
    5b18:	00caf633          	and	a2,s5,a2
    5b1c:	018573b3          	and	t2,a0,s8
    5b20:	00766633          	or	a2,a2,t2
    5b24:	00000593          	li	a1,0
    5b28:	00167a93          	and	s5,a2,1
    5b2c:	019b2023          	sw	s9,0(s6)
    5b30:	017b2223          	sw	s7,4(s6)
    5b34:	00549793          	sll	a5,s1,0x5
    5b38:	00fa0eb3          	add	t4,s4,a5
    5b3c:	008eab03          	lw	s6,8(t4)
    5b40:	00ceab83          	lw	s7,12(t4)
    5b44:	04010813          	add	a6,sp,64
    5b48:	00f802b3          	add	t0,a6,a5
    5b4c:	0002af03          	lw	t5,0(t0)
    5b50:	0042a283          	lw	t0,4(t0)
    5b54:	05810893          	add	a7,sp,88
    5b58:	00f886b3          	add	a3,a7,a5
    5b5c:	00868c93          	add	s9,a3,8
    5b60:	01eb30b3          	sltu	ra,s6,t5
    5b64:	41eb0fb3          	sub	t6,s6,t5
    5b68:	405b8333          	sub	t1,s7,t0
    5b6c:	40130333          	sub	t1,t1,ra
    5b70:	000f8293          	mv	t0,t6
    5b74:	0152b0b3          	sltu	ra,t0,s5
    5b78:	41528d33          	sub	s10,t0,s5
    5b7c:	40b30c33          	sub	s8,t1,a1
    5b80:	401c0c33          	sub	s8,s8,ra
    5b84:	000b8693          	mv	a3,s7
    5b88:	000b0613          	mv	a2,s6
    5b8c:	000c0593          	mv	a1,s8
    5b90:	000d0513          	mv	a0,s10
    5b94:	8e0fb0ef          	jal	c74 <FStar_UInt64_gte_mask>
    5b98:	00050413          	mv	s0,a0
    5b9c:	000b8693          	mv	a3,s7
    5ba0:	000b0613          	mv	a2,s6
    5ba4:	000c0593          	mv	a1,s8
    5ba8:	000d0513          	mv	a0,s10
    5bac:	864fb0ef          	jal	c10 <FStar_UInt64_eq_mask>
    5bb0:	00050d93          	mv	s11,a0
    5bb4:	000b8693          	mv	a3,s7
    5bb8:	000b0613          	mv	a2,s6
    5bbc:	000c0593          	mv	a1,s8
    5bc0:	000d0513          	mv	a0,s10
    5bc4:	84cfb0ef          	jal	c10 <FStar_UInt64_eq_mask>
    5bc8:	fffdce93          	not	t4,s11
    5bcc:	01d47733          	and	a4,s0,t4
    5bd0:	01557333          	and	t1,a0,s5
    5bd4:	006766b3          	or	a3,a4,t1
    5bd8:	00000e13          	li	t3,0
    5bdc:	0016fb93          	and	s7,a3,1
    5be0:	01aca023          	sw	s10,0(s9)
    5be4:	018ca223          	sw	s8,4(s9)
    5be8:	00549513          	sll	a0,s1,0x5
    5bec:	00aa05b3          	add	a1,s4,a0
    5bf0:	0105ac03          	lw	s8,16(a1)
    5bf4:	0145ac83          	lw	s9,20(a1)
    5bf8:	04810693          	add	a3,sp,72
    5bfc:	00a687b3          	add	a5,a3,a0
    5c00:	0007a803          	lw	a6,0(a5)
    5c04:	0047a883          	lw	a7,4(a5)
    5c08:	05810613          	add	a2,sp,88
    5c0c:	00a60eb3          	add	t4,a2,a0
    5c10:	010e8413          	add	s0,t4,16
    5c14:	010c30b3          	sltu	ra,s8,a6
    5c18:	410c0333          	sub	t1,s8,a6
    5c1c:	411c8533          	sub	a0,s9,a7
    5c20:	40150533          	sub	a0,a0,ra
    5c24:	017330b3          	sltu	ra,t1,s7
    5c28:	41730ab3          	sub	s5,t1,s7
    5c2c:	41c50b33          	sub	s6,a0,t3
    5c30:	401b0b33          	sub	s6,s6,ra
    5c34:	000c8693          	mv	a3,s9
    5c38:	000c0613          	mv	a2,s8
    5c3c:	000b0593          	mv	a1,s6
    5c40:	000a8513          	mv	a0,s5
    5c44:	830fb0ef          	jal	c74 <FStar_UInt64_gte_mask>
    5c48:	00050d93          	mv	s11,a0
    5c4c:	000c8693          	mv	a3,s9
    5c50:	000c0613          	mv	a2,s8
    5c54:	000b0593          	mv	a1,s6
    5c58:	000a8513          	mv	a0,s5
    5c5c:	fb5fa0ef          	jal	c10 <FStar_UInt64_eq_mask>
    5c60:	00050d13          	mv	s10,a0
    5c64:	000c8693          	mv	a3,s9
    5c68:	000c0613          	mv	a2,s8
    5c6c:	000b0593          	mv	a1,s6
    5c70:	000a8513          	mv	a0,s5
    5c74:	f9dfa0ef          	jal	c10 <FStar_UInt64_eq_mask>
    5c78:	fffd4593          	not	a1,s10
    5c7c:	00bdf2b3          	and	t0,s11,a1
    5c80:	01757833          	and	a6,a0,s7
    5c84:	0102ee33          	or	t3,t0,a6
    5c88:	00000613          	li	a2,0
    5c8c:	001e7b93          	and	s7,t3,1
    5c90:	01542023          	sw	s5,0(s0)
    5c94:	01642223          	sw	s6,4(s0)
    5c98:	00549e13          	sll	t3,s1,0x5
    5c9c:	01ca03b3          	add	t2,s4,t3
    5ca0:	0183ad83          	lw	s11,24(t2)
    5ca4:	01c3ad03          	lw	s10,28(t2)
    5ca8:	05010f13          	add	t5,sp,80
    5cac:	01cf05b3          	add	a1,t5,t3
    5cb0:	0005a503          	lw	a0,0(a1)
    5cb4:	0045a583          	lw	a1,4(a1)
    5cb8:	05810313          	add	t1,sp,88
    5cbc:	01c306b3          	add	a3,t1,t3
    5cc0:	01868413          	add	s0,a3,24
    5cc4:	00adb0b3          	sltu	ra,s11,a0
    5cc8:	40ad83b3          	sub	t2,s11,a0
    5ccc:	40bd0733          	sub	a4,s10,a1
    5cd0:	40170733          	sub	a4,a4,ra
    5cd4:	0173b0b3          	sltu	ra,t2,s7
    5cd8:	41738b33          	sub	s6,t2,s7
    5cdc:	40c70ab3          	sub	s5,a4,a2
    5ce0:	401a8ab3          	sub	s5,s5,ra
    5ce4:	000d0693          	mv	a3,s10
    5ce8:	000d8613          	mv	a2,s11
    5cec:	000a8593          	mv	a1,s5
    5cf0:	000b0513          	mv	a0,s6
    5cf4:	f81fa0ef          	jal	c74 <FStar_UInt64_gte_mask>
    5cf8:	00050c93          	mv	s9,a0
    5cfc:	000d0693          	mv	a3,s10
    5d00:	000d8613          	mv	a2,s11
    5d04:	000a8593          	mv	a1,s5
    5d08:	000b0513          	mv	a0,s6
    5d0c:	f05fa0ef          	jal	c10 <FStar_UInt64_eq_mask>
    5d10:	00050c13          	mv	s8,a0
    5d14:	000d0693          	mv	a3,s10
    5d18:	000d8613          	mv	a2,s11
    5d1c:	000a8593          	mv	a1,s5
    5d20:	000b0513          	mv	a0,s6
    5d24:	eedfa0ef          	jal	c10 <FStar_UInt64_eq_mask>
    5d28:	fffc4693          	not	a3,s8
    5d2c:	00dcf6b3          	and	a3,s9,a3
    5d30:	017573b3          	and	t2,a0,s7
    5d34:	0076e533          	or	a0,a3,t2
    5d38:	00000313          	li	t1,0
    5d3c:	00157c13          	and	s8,a0,1
    5d40:	01642023          	sw	s6,0(s0)
    5d44:	01542223          	sw	s5,4(s0)
    5d48:	00148493          	add	s1,s1,1
    5d4c:	00100f93          	li	t6,1
    5d50:	d3f4ece3          	bltu	s1,t6,5a88 <qmont_reduction+0x264>
    5d54:	018930b3          	sltu	ra,s2,s8
    5d58:	41890833          	sub	a6,s2,s8
    5d5c:	406985b3          	sub	a1,s3,t1
    5d60:	401585b3          	sub	a1,a1,ra
    5d64:	00000e13          	li	t3,0
    5d68:	00058293          	mv	t0,a1
    5d6c:	003e1313          	sll	t1,t3,0x3
    5d70:	006a07b3          	add	a5,s4,t1
    5d74:	0007a683          	lw	a3,0(a5)
    5d78:	0047af03          	lw	t5,4(a5)
    5d7c:	01e2feb3          	and	t4,t0,t5
    5d80:	00080893          	mv	a7,a6
    5d84:	00d8f533          	and	a0,a7,a3
    5d88:	fff2c293          	not	t0,t0
    5d8c:	fff8c713          	not	a4,a7
    5d90:	05810f13          	add	t5,sp,88
    5d94:	006f06b3          	add	a3,t5,t1
    5d98:	0006a603          	lw	a2,0(a3)
    5d9c:	0046a883          	lw	a7,4(a3)
    5da0:	0112f3b3          	and	t2,t0,a7
    5da4:	00c77333          	and	t1,a4,a2
    5da8:	007eeeb3          	or	t4,t4,t2
    5dac:	006568b3          	or	a7,a0,t1
    5db0:	0117a023          	sw	a7,0(a5)
    5db4:	01d7a223          	sw	t4,4(a5)
    5db8:	001e0e13          	add	t3,t3,1
    5dbc:	00400f93          	li	t6,4
    5dc0:	fbfe64e3          	bltu	t3,t6,5d68 <qmont_reduction+0x544>
    5dc4:	00812403          	lw	s0,8(sp)
    5dc8:	00c12483          	lw	s1,12(sp)
    5dcc:	01012903          	lw	s2,16(sp)
    5dd0:	01412983          	lw	s3,20(sp)
    5dd4:	01812a03          	lw	s4,24(sp)
    5dd8:	01c12a83          	lw	s5,28(sp)
    5ddc:	02012b03          	lw	s6,32(sp)
    5de0:	02412b83          	lw	s7,36(sp)
    5de4:	02812c03          	lw	s8,40(sp)
    5de8:	02c12c83          	lw	s9,44(sp)
    5dec:	03012d03          	lw	s10,48(sp)
    5df0:	03412d83          	lw	s11,52(sp)
    5df4:	00412083          	lw	ra,4(sp)
    5df8:	08010113          	add	sp,sp,128
    5dfc:	00008067          	ret

00005e00 <qmul>:
    5e00:	00010f13          	mv	t5,sp
    5e04:	fb010113          	add	sp,sp,-80
    5e08:	01e12023          	sw	t5,0(sp)
    5e0c:	00112223          	sw	ra,4(sp)
    5e10:	00812423          	sw	s0,8(sp)
    5e14:	00050413          	mv	s0,a0
    5e18:	00000313          	li	t1,0
    5e1c:	00000293          	li	t0,0
    5e20:	00512823          	sw	t0,16(sp)
    5e24:	00612a23          	sw	t1,20(sp)
    5e28:	00512c23          	sw	t0,24(sp)
    5e2c:	00612e23          	sw	t1,28(sp)
    5e30:	02512023          	sw	t0,32(sp)
    5e34:	02612223          	sw	t1,36(sp)
    5e38:	02512423          	sw	t0,40(sp)
    5e3c:	02612623          	sw	t1,44(sp)
    5e40:	02512823          	sw	t0,48(sp)
    5e44:	02612a23          	sw	t1,52(sp)
    5e48:	02512c23          	sw	t0,56(sp)
    5e4c:	02612e23          	sw	t1,60(sp)
    5e50:	04512023          	sw	t0,64(sp)
    5e54:	04612223          	sw	t1,68(sp)
    5e58:	04512423          	sw	t0,72(sp)
    5e5c:	04612623          	sw	t1,76(sp)
    5e60:	01010513          	add	a0,sp,16
    5e64:	e3cfd0ef          	jal	34a0 <bn_mul4>
    5e68:	01010593          	add	a1,sp,16
    5e6c:	00040513          	mv	a0,s0
    5e70:	9b5ff0ef          	jal	5824 <qmont_reduction>
    5e74:	00812403          	lw	s0,8(sp)
    5e78:	00412083          	lw	ra,4(sp)
    5e7c:	05010113          	add	sp,sp,80
    5e80:	00008067          	ret

00005e84 <qsqr>:
    5e84:	00010f13          	mv	t5,sp
    5e88:	fb010113          	add	sp,sp,-80
    5e8c:	01e12023          	sw	t5,0(sp)
    5e90:	00112223          	sw	ra,4(sp)
    5e94:	00812423          	sw	s0,8(sp)
    5e98:	00050413          	mv	s0,a0
    5e9c:	00000313          	li	t1,0
    5ea0:	00000293          	li	t0,0
    5ea4:	00512823          	sw	t0,16(sp)
    5ea8:	00612a23          	sw	t1,20(sp)
    5eac:	00512c23          	sw	t0,24(sp)
    5eb0:	00612e23          	sw	t1,28(sp)
    5eb4:	02512023          	sw	t0,32(sp)
    5eb8:	02612223          	sw	t1,36(sp)
    5ebc:	02512423          	sw	t0,40(sp)
    5ec0:	02612623          	sw	t1,44(sp)
    5ec4:	02512823          	sw	t0,48(sp)
    5ec8:	02612a23          	sw	t1,52(sp)
    5ecc:	02512c23          	sw	t0,56(sp)
    5ed0:	02612e23          	sw	t1,60(sp)
    5ed4:	04512023          	sw	t0,64(sp)
    5ed8:	04612223          	sw	t1,68(sp)
    5edc:	04512423          	sw	t0,72(sp)
    5ee0:	04612623          	sw	t1,76(sp)
    5ee4:	01010513          	add	a0,sp,16
    5ee8:	f38fd0ef          	jal	3620 <bn_sqr4>
    5eec:	01010593          	add	a1,sp,16
    5ef0:	00040513          	mv	a0,s0
    5ef4:	931ff0ef          	jal	5824 <qmont_reduction>
    5ef8:	00812403          	lw	s0,8(sp)
    5efc:	00412083          	lw	ra,4(sp)
    5f00:	05010113          	add	sp,sp,80
    5f04:	00008067          	ret

00005f08 <Hacl_P256_ecdsa_sign_p256_without_hash>:
    5f08:	00010f13          	mv	t5,sp
    5f0c:	b9010113          	add	sp,sp,-1136
    5f10:	01e12023          	sw	t5,0(sp)
    5f14:	00112223          	sw	ra,4(sp)
    5f18:	00812423          	sw	s0,8(sp)
    5f1c:	00912623          	sw	s1,12(sp)
    5f20:	01212823          	sw	s2,16(sp)
    5f24:	01312a23          	sw	s3,20(sp)
    5f28:	01412c23          	sw	s4,24(sp)
    5f2c:	01512e23          	sw	s5,28(sp)
    5f30:	03612023          	sw	s6,32(sp)
    5f34:	03712223          	sw	s7,36(sp)
    5f38:	03812423          	sw	s8,40(sp)
    5f3c:	03912623          	sw	s9,44(sp)
    5f40:	03a12823          	sw	s10,48(sp)
    5f44:	03b12a23          	sw	s11,52(sp)
    5f48:	00070913          	mv	s2,a4
    5f4c:	00068413          	mv	s0,a3
    5f50:	00060593          	mv	a1,a2
    5f54:	06a12423          	sw	a0,104(sp)
    5f58:	00000793          	li	a5,0
    5f5c:	00000713          	li	a4,0
    5f60:	06e12823          	sw	a4,112(sp)
    5f64:	06f12a23          	sw	a5,116(sp)
    5f68:	06e12c23          	sw	a4,120(sp)
    5f6c:	06f12e23          	sw	a5,124(sp)
    5f70:	08e12023          	sw	a4,128(sp)
    5f74:	08f12223          	sw	a5,132(sp)
    5f78:	08e12423          	sw	a4,136(sp)
    5f7c:	08f12623          	sw	a5,140(sp)
    5f80:	00000293          	li	t0,0
    5f84:	08510823          	sb	t0,144(sp)
    5f88:	00000713          	li	a4,0
    5f8c:	08e108a3          	sb	a4,145(sp)
    5f90:	00000613          	li	a2,0
    5f94:	08c10923          	sb	a2,146(sp)
    5f98:	00000793          	li	a5,0
    5f9c:	08f109a3          	sb	a5,147(sp)
    5fa0:	00000793          	li	a5,0
    5fa4:	08f10a23          	sb	a5,148(sp)
    5fa8:	00000693          	li	a3,0
    5fac:	08d10aa3          	sb	a3,149(sp)
    5fb0:	00000793          	li	a5,0
    5fb4:	08f10b23          	sb	a5,150(sp)
    5fb8:	00000293          	li	t0,0
    5fbc:	08510ba3          	sb	t0,151(sp)
    5fc0:	00000693          	li	a3,0
    5fc4:	08d10c23          	sb	a3,152(sp)
    5fc8:	00000f13          	li	t5,0
    5fcc:	09e10ca3          	sb	t5,153(sp)
    5fd0:	00000893          	li	a7,0
    5fd4:	09110d23          	sb	a7,154(sp)
    5fd8:	00000e93          	li	t4,0
    5fdc:	09d10da3          	sb	t4,155(sp)
    5fe0:	00000e93          	li	t4,0
    5fe4:	09d10e23          	sb	t4,156(sp)
    5fe8:	00000713          	li	a4,0
    5fec:	08e10ea3          	sb	a4,157(sp)
    5ff0:	00000613          	li	a2,0
    5ff4:	08c10f23          	sb	a2,158(sp)
    5ff8:	00000e93          	li	t4,0
    5ffc:	09d10fa3          	sb	t4,159(sp)
    6000:	00000793          	li	a5,0
    6004:	0af10023          	sb	a5,160(sp)
    6008:	00000293          	li	t0,0
    600c:	0a5100a3          	sb	t0,161(sp)
    6010:	00000613          	li	a2,0
    6014:	0ac10123          	sb	a2,162(sp)
    6018:	00000813          	li	a6,0
    601c:	0b0101a3          	sb	a6,163(sp)
    6020:	00000613          	li	a2,0
    6024:	0ac10223          	sb	a2,164(sp)
    6028:	00000393          	li	t2,0
    602c:	0a7102a3          	sb	t2,165(sp)
    6030:	00000f13          	li	t5,0
    6034:	0be10323          	sb	t5,166(sp)
    6038:	00000613          	li	a2,0
    603c:	0ac103a3          	sb	a2,167(sp)
    6040:	00000e93          	li	t4,0
    6044:	0bd10423          	sb	t4,168(sp)
    6048:	00000513          	li	a0,0
    604c:	0aa104a3          	sb	a0,169(sp)
    6050:	00000313          	li	t1,0
    6054:	0a610523          	sb	t1,170(sp)
    6058:	00000613          	li	a2,0
    605c:	0ac105a3          	sb	a2,171(sp)
    6060:	00000513          	li	a0,0
    6064:	0aa10623          	sb	a0,172(sp)
    6068:	00000793          	li	a5,0
    606c:	0af106a3          	sb	a5,173(sp)
    6070:	00000793          	li	a5,0
    6074:	0af10723          	sb	a5,174(sp)
    6078:	00000393          	li	t2,0
    607c:	0a7107a3          	sb	t2,175(sp)
    6080:	09010513          	add	a0,sp,144
    6084:	02000613          	li	a2,32
    6088:	ae0fa0ef          	jal	368 <memcpy>
    608c:	09010593          	add	a1,sp,144
    6090:	07010513          	add	a0,sp,112
    6094:	fa5fd0ef          	jal	4038 <bn_from_bytes_be4>
    6098:	07010513          	add	a0,sp,112
    609c:	07010593          	add	a1,sp,112
    60a0:	e98ff0ef          	jal	5738 <qmod_short>
    60a4:	00040593          	mv	a1,s0
    60a8:	00000393          	li	t2,0
    60ac:	00000313          	li	t1,0
    60b0:	16612823          	sw	t1,368(sp)
    60b4:	16712a23          	sw	t2,372(sp)
    60b8:	16612c23          	sw	t1,376(sp)
    60bc:	16712e23          	sw	t2,380(sp)
    60c0:	18612023          	sw	t1,384(sp)
    60c4:	18712223          	sw	t2,388(sp)
    60c8:	18612423          	sw	t1,392(sp)
    60cc:	18712623          	sw	t2,396(sp)
    60d0:	18612823          	sw	t1,400(sp)
    60d4:	18712a23          	sw	t2,404(sp)
    60d8:	18612c23          	sw	t1,408(sp)
    60dc:	18712e23          	sw	t2,412(sp)
    60e0:	1a612023          	sw	t1,416(sp)
    60e4:	1a712223          	sw	t2,420(sp)
    60e8:	1a612423          	sw	t1,424(sp)
    60ec:	1a712623          	sw	t2,428(sp)
    60f0:	1a612823          	sw	t1,432(sp)
    60f4:	1a712a23          	sw	t2,436(sp)
    60f8:	1a612c23          	sw	t1,440(sp)
    60fc:	1a712e23          	sw	t2,444(sp)
    6100:	1c612023          	sw	t1,448(sp)
    6104:	1c712223          	sw	t2,452(sp)
    6108:	1c612423          	sw	t1,456(sp)
    610c:	1c712623          	sw	t2,460(sp)
    6110:	1c612823          	sw	t1,464(sp)
    6114:	1c712a23          	sw	t2,468(sp)
    6118:	1c612c23          	sw	t1,472(sp)
    611c:	1c712e23          	sw	t2,476(sp)
    6120:	1e612023          	sw	t1,480(sp)
    6124:	1e712223          	sw	t2,484(sp)
    6128:	1e612423          	sw	t1,488(sp)
    612c:	1e712623          	sw	t2,492(sp)
    6130:	17010313          	add	t1,sp,368
    6134:	06612223          	sw	t1,100(sp)
    6138:	19010693          	add	a3,sp,400
    613c:	06d12023          	sw	a3,96(sp)
    6140:	1b010493          	add	s1,sp,432
    6144:	1d010993          	add	s3,sp,464
    6148:	00048513          	mv	a0,s1
    614c:	eedfd0ef          	jal	4038 <bn_from_bytes_be4>
    6150:	00048513          	mv	a0,s1
    6154:	d44ff0ef          	jal	5698 <bn_is_lt_order_and_gt_zero_mask4>
    6158:	00050413          	mv	s0,a0
    615c:	00000813          	li	a6,0
    6160:	00000793          	li	a5,0
    6164:	00000e93          	li	t4,0
    6168:	00100e13          	li	t3,1
    616c:	0dc12823          	sw	t3,208(sp)
    6170:	0dd12a23          	sw	t4,212(sp)
    6174:	0cf12c23          	sw	a5,216(sp)
    6178:	0d012e23          	sw	a6,220(sp)
    617c:	0ef12023          	sw	a5,224(sp)
    6180:	0f012223          	sw	a6,228(sp)
    6184:	0ef12423          	sw	a5,232(sp)
    6188:	0f012623          	sw	a6,236(sp)
    618c:	00000f13          	li	t5,0
    6190:	1b010e93          	add	t4,sp,432
    6194:	0d010693          	add	a3,sp,208
    6198:	003f1393          	sll	t2,t5,0x3
    619c:	00768533          	add	a0,a3,t2
    61a0:	00052783          	lw	a5,0(a0)
    61a4:	00452503          	lw	a0,4(a0)
    61a8:	00058813          	mv	a6,a1
    61ac:	00748633          	add	a2,s1,t2
    61b0:	00062683          	lw	a3,0(a2)
    61b4:	00462603          	lw	a2,4(a2)
    61b8:	00a64333          	xor	t1,a2,a0
    61bc:	00f6c6b3          	xor	a3,a3,a5
    61c0:	006878b3          	and	a7,a6,t1
    61c4:	00040293          	mv	t0,s0
    61c8:	00d2f833          	and	a6,t0,a3
    61cc:	01154e33          	xor	t3,a0,a7
    61d0:	0107c8b3          	xor	a7,a5,a6
    61d4:	007e8633          	add	a2,t4,t2
    61d8:	01162023          	sw	a7,0(a2)
    61dc:	01c62223          	sw	t3,4(a2)
    61e0:	001f0f13          	add	t5,t5,1
    61e4:	00400f93          	li	t6,4
    61e8:	fbff64e3          	bltu	t5,t6,6190 <Hacl_P256_ecdsa_sign_p256_without_hash+0x288>
    61ec:	00090593          	mv	a1,s2
    61f0:	00098513          	mv	a0,s3
    61f4:	e45fd0ef          	jal	4038 <bn_from_bytes_be4>
    61f8:	00098513          	mv	a0,s3
    61fc:	c9cff0ef          	jal	5698 <bn_is_lt_order_and_gt_zero_mask4>
    6200:	00000693          	li	a3,0
    6204:	00000613          	li	a2,0
    6208:	00000e13          	li	t3,0
    620c:	00100893          	li	a7,1
    6210:	0f112823          	sw	a7,240(sp)
    6214:	0fc12a23          	sw	t3,244(sp)
    6218:	0ec12c23          	sw	a2,248(sp)
    621c:	0ed12e23          	sw	a3,252(sp)
    6220:	10c12023          	sw	a2,256(sp)
    6224:	10d12223          	sw	a3,260(sp)
    6228:	10c12423          	sw	a2,264(sp)
    622c:	10d12623          	sw	a3,268(sp)
    6230:	00000793          	li	a5,0
    6234:	1d010393          	add	t2,sp,464
    6238:	0f010613          	add	a2,sp,240
    623c:	00379293          	sll	t0,a5,0x3
    6240:	00560f33          	add	t5,a2,t0
    6244:	000f2803          	lw	a6,0(t5)
    6248:	004f2f03          	lw	t5,4(t5)
    624c:	00598633          	add	a2,s3,t0
    6250:	00062303          	lw	t1,0(a2)
    6254:	00462603          	lw	a2,4(a2)
    6258:	01e64733          	xor	a4,a2,t5
    625c:	010346b3          	xor	a3,t1,a6
    6260:	00058893          	mv	a7,a1
    6264:	00e8fe33          	and	t3,a7,a4
    6268:	00050e93          	mv	t4,a0
    626c:	00def333          	and	t1,t4,a3
    6270:	01cf4633          	xor	a2,t5,t3
    6274:	00684f33          	xor	t5,a6,t1
    6278:	00538833          	add	a6,t2,t0
    627c:	01e82023          	sw	t5,0(a6)
    6280:	00c82223          	sw	a2,4(a6)
    6284:	00178793          	add	a5,a5,1
    6288:	00400f93          	li	t6,4
    628c:	fbf7e4e3          	bltu	a5,t6,6234 <Hacl_P256_ecdsa_sign_p256_without_hash+0x32c>
    6290:	01d47433          	and	s0,s0,t4
    6294:	00000713          	li	a4,0
    6298:	00000693          	li	a3,0
    629c:	10d12823          	sw	a3,272(sp)
    62a0:	10e12a23          	sw	a4,276(sp)
    62a4:	10d12c23          	sw	a3,280(sp)
    62a8:	10e12e23          	sw	a4,284(sp)
    62ac:	12d12023          	sw	a3,288(sp)
    62b0:	12e12223          	sw	a4,292(sp)
    62b4:	12d12423          	sw	a3,296(sp)
    62b8:	12e12623          	sw	a4,300(sp)
    62bc:	12d12823          	sw	a3,304(sp)
    62c0:	12e12a23          	sw	a4,308(sp)
    62c4:	12d12c23          	sw	a3,312(sp)
    62c8:	12e12e23          	sw	a4,316(sp)
    62cc:	14d12023          	sw	a3,320(sp)
    62d0:	14e12223          	sw	a4,324(sp)
    62d4:	14d12423          	sw	a3,328(sp)
    62d8:	14e12623          	sw	a4,332(sp)
    62dc:	14d12823          	sw	a3,336(sp)
    62e0:	14e12a23          	sw	a4,340(sp)
    62e4:	14d12c23          	sw	a3,344(sp)
    62e8:	14e12e23          	sw	a4,348(sp)
    62ec:	16d12023          	sw	a3,352(sp)
    62f0:	16e12223          	sw	a4,356(sp)
    62f4:	16d12423          	sw	a3,360(sp)
    62f8:	16e12623          	sw	a4,364(sp)
    62fc:	11010b13          	add	s6,sp,272
    6300:	28d12823          	sw	a3,656(sp)
    6304:	28e12a23          	sw	a4,660(sp)
    6308:	28d12c23          	sw	a3,664(sp)
    630c:	28e12e23          	sw	a4,668(sp)
    6310:	2ad12023          	sw	a3,672(sp)
    6314:	2ae12223          	sw	a4,676(sp)
    6318:	2ad12423          	sw	a3,680(sp)
    631c:	2ae12623          	sw	a4,684(sp)
    6320:	29010513          	add	a0,sp,656
    6324:	79e738b7          	lui	a7,0x79e73
    6328:	0d488893          	add	a7,a7,212 # 79e730d4 <_ebss+0x59e72218>
    632c:	18a91837          	lui	a6,0x18a91
    6330:	43c80813          	add	a6,a6,1084 # 18a9143c <_erodata+0x18a87dbc>
    6334:	25012823          	sw	a6,592(sp)
    6338:	25112a23          	sw	a7,596(sp)
    633c:	75ba9eb7          	lui	t4,0x75ba9
    6340:	5fce8e93          	add	t4,t4,1532 # 75ba95fc <_ebss+0x55ba8740>
    6344:	5fedbe37          	lui	t3,0x5fedb
    6348:	601e0e13          	add	t3,t3,1537 # 5fedb601 <_ebss+0x3feda745>
    634c:	25c12c23          	sw	t3,600(sp)
    6350:	25d12e23          	sw	t4,604(sp)
    6354:	79fb7337          	lui	t1,0x79fb7
    6358:	32b30313          	add	t1,t1,811 # 79fb732b <_ebss+0x59fb646f>
    635c:	776222b7          	lui	t0,0x77622
    6360:	51028293          	add	t0,t0,1296 # 77622510 <_ebss+0x57621654>
    6364:	26512023          	sw	t0,608(sp)
    6368:	26612223          	sw	t1,612(sp)
    636c:	18906337          	lui	t1,0x18906
    6370:	f7630313          	add	t1,t1,-138 # 18905f76 <_erodata+0x188fc8f6>
    6374:	a53752b7          	lui	t0,0xa5375
    6378:	5c628293          	add	t0,t0,1478 # a53755c6 <_ebss+0x8537470a>
    637c:	26512423          	sw	t0,616(sp)
    6380:	26612623          	sw	t1,620(sp)
    6384:	ddf25637          	lui	a2,0xddf25
    6388:	35760613          	add	a2,a2,855 # ddf25357 <_ebss+0xbdf2449b>
    638c:	ce9555b7          	lui	a1,0xce955
    6390:	60a58593          	add	a1,a1,1546 # ce95560a <_ebss+0xae95474e>
    6394:	26b12823          	sw	a1,624(sp)
    6398:	26c12a23          	sw	a2,628(sp)
    639c:	8b4ac837          	lui	a6,0x8b4ac
    63a0:	8e480813          	add	a6,a6,-1820 # 8b4ab8e4 <_ebss+0x6b4aaa28>
    63a4:	ba19e7b7          	lui	a5,0xba19e
    63a8:	45c78793          	add	a5,a5,1116 # ba19e45c <_ebss+0x9a19d5a0>
    63ac:	26f12c23          	sw	a5,632(sp)
    63b0:	27012e23          	sw	a6,636(sp)
    63b4:	d2e882b7          	lui	t0,0xd2e88
    63b8:	68828293          	add	t0,t0,1672 # d2e88688 <_ebss+0xb2e877cc>
    63bc:	dd21ff37          	lui	t5,0xdd21f
    63c0:	325f0f13          	add	t5,t5,805 # dd21f325 <_ebss+0xbd21e469>
    63c4:	29e12023          	sw	t5,640(sp)
    63c8:	28512223          	sw	t0,644(sp)
    63cc:	857202b7          	lui	t0,0x85720
    63d0:	f1828293          	add	t0,t0,-232 # 8571ff18 <_ebss+0x6571f05c>
    63d4:	25886f37          	lui	t5,0x25886
    63d8:	d85f0f13          	add	t5,t5,-635 # 25885d85 <_ebss+0x5884ec9>
    63dc:	29e12423          	sw	t5,648(sp)
    63e0:	28512623          	sw	t0,652(sp)
    63e4:	e55fd0ef          	jal	4238 <make_fone>
    63e8:	14cfc6b7          	lui	a3,0x14cfc
    63ec:	9e468693          	add	a3,a3,-1564 # 14cfb9e4 <_erodata+0x14cf2364>
    63f0:	c2623637          	lui	a2,0xc2623
    63f4:	50560613          	add	a2,a2,1285 # c2623505 <_ebss+0xa2622649>
    63f8:	2ac12823          	sw	a2,688(sp)
    63fc:	2ad12a23          	sw	a3,692(sp)
    6400:	e7a73f37          	lui	t5,0xe7a73
    6404:	5e0f0f13          	add	t5,t5,1504 # e7a735e0 <_ebss+0xc7a72724>
    6408:	b187aeb7          	lui	t4,0xb187a
    640c:	9a8e8e93          	add	t4,t4,-1624 # b18799a8 <_ebss+0x91878aec>
    6410:	2bd12c23          	sw	t4,696(sp)
    6414:	2be12e23          	sw	t5,700(sp)
    6418:	d4d9d637          	lui	a2,0xd4d9d
    641c:	14d60613          	add	a2,a2,333 # d4d9d14d <_ebss+0xb4d9c291>
    6420:	4d1545b7          	lui	a1,0x4d154
    6424:	71858593          	add	a1,a1,1816 # 4d154718 <_ebss+0x2d15385c>
    6428:	2cb12023          	sw	a1,704(sp)
    642c:	2cc12223          	sw	a2,708(sp)
    6430:	4bb6bf37          	lui	t5,0x4bb6b
    6434:	c17f0f13          	add	t5,t5,-1001 # 4bb6ac17 <_ebss+0x2bb69d5b>
    6438:	41e02eb7          	lui	t4,0x41e02
    643c:	c54e8e93          	add	t4,t4,-940 # 41e01c54 <_ebss+0x21e00d98>
    6440:	2dd12423          	sw	t4,712(sp)
    6444:	2de12623          	sw	t5,716(sp)
    6448:	f76658b7          	lui	a7,0xf7665
    644c:	9b888893          	add	a7,a7,-1608 # f76649b8 <_ebss+0xd7663afc>
    6450:	54763837          	lui	a6,0x54763
    6454:	2c080813          	add	a6,a6,704 # 547632c0 <_ebss+0x34762404>
    6458:	2d012823          	sw	a6,720(sp)
    645c:	2d112a23          	sw	a7,724(sp)
    6460:	ac461637          	lui	a2,0xac461
    6464:	b1460613          	add	a2,a2,-1260 # ac460b14 <_ebss+0x8c45fc58>
    6468:	a81895b7          	lui	a1,0xa8189
    646c:	93958593          	add	a1,a1,-1735 # a8188939 <_ebss+0x88187a7d>
    6470:	2cb12c23          	sw	a1,728(sp)
    6474:	2cc12e23          	sw	a2,732(sp)
    6478:	1fc97837          	lui	a6,0x1fc97
    647c:	e2980813          	add	a6,a6,-471 # 1fc96e29 <_erodata+0x1fc8d7a9>
    6480:	099827b7          	lui	a5,0x9982
    6484:	cb478793          	add	a5,a5,-844 # 9981cb4 <_erodata+0x9978634>
    6488:	2ef12023          	sw	a5,736(sp)
    648c:	2f012223          	sw	a6,740(sp)
    6490:	da9a7537          	lui	a0,0xda9a7
    6494:	88150513          	add	a0,a0,-1919 # da9a6881 <_ebss+0xba9a59c5>
    6498:	ca9953b7          	lui	t2,0xca995
    649c:	b1438393          	add	t2,t2,-1260 # ca994b14 <_ebss+0xaa993c58>
    64a0:	2e712423          	sw	t2,744(sp)
    64a4:	2ea12623          	sw	a0,748(sp)
    64a8:	43420837          	lui	a6,0x43420
    64ac:	b3c80813          	add	a6,a6,-1220 # 4341fb3c <_ebss+0x2341ec80>
    64b0:	58d397b7          	lui	a5,0x58d39
    64b4:	3fa78793          	add	a5,a5,1018 # 58d393fa <_ebss+0x38d3853e>
    64b8:	2ef12823          	sw	a5,752(sp)
    64bc:	2f012a23          	sw	a6,756(sp)
    64c0:	96bc7637          	lui	a2,0x96bc7
    64c4:	2f560613          	add	a2,a2,757 # 96bc72f5 <_ebss+0x76bc6439>
    64c8:	2173c5b7          	lui	a1,0x2173c
    64cc:	65558593          	add	a1,a1,1621 # 2173c655 <_ebss+0x173b799>
    64d0:	2eb12c23          	sw	a1,760(sp)
    64d4:	2ec12e23          	sw	a2,764(sp)
    64d8:	d5c8a2b7          	lui	t0,0xd5c8a
    64dc:	ee228293          	add	t0,t0,-286 # d5c89ee2 <_ebss+0xb5c89026>
    64e0:	cfa65f37          	lui	t5,0xcfa65
    64e4:	329f0f13          	add	t5,t5,809 # cfa65329 <_ebss+0xafa6446d>
    64e8:	31e12023          	sw	t5,768(sp)
    64ec:	30512223          	sw	t0,772(sp)
    64f0:	050bc737          	lui	a4,0x50bc
    64f4:	81a70713          	add	a4,a4,-2022 # 50bb81a <_erodata+0x50b219a>
    64f8:	975ce6b7          	lui	a3,0x975ce
    64fc:	9a668693          	add	a3,a3,-1626 # 975cd9a6 <_ebss+0x775ccaea>
    6500:	30d12423          	sw	a3,776(sp)
    6504:	30e12623          	sw	a4,780(sp)
    6508:	cae206b7          	lui	a3,0xcae20
    650c:	6bd68693          	add	a3,a3,1725 # cae206bd <_ebss+0xaae1f801>
    6510:	e619c637          	lui	a2,0xe619c
    6514:	0ce60613          	add	a2,a2,206 # e619c0ce <_ebss+0xc619b212>
    6518:	30c12823          	sw	a2,784(sp)
    651c:	30d12a23          	sw	a3,788(sp)
    6520:	c117e337          	lui	t1,0xc117e
    6524:	f5130313          	add	t1,t1,-175 # c117df51 <_ebss+0xa117d095>
    6528:	df2c62b7          	lui	t0,0xdf2c6
    652c:	e1128293          	add	t0,t0,-495 # df2c5e11 <_ebss+0xbf2c4f55>
    6530:	30512c23          	sw	t0,792(sp)
    6534:	30612e23          	sw	t1,796(sp)
    6538:	d1028337          	lui	t1,0xd1028
    653c:	37c30313          	add	t1,t1,892 # d102837c <_ebss+0xb10274c0>
    6540:	5fe692b7          	lui	t0,0x5fe69
    6544:	cd128293          	add	t0,t0,-815 # 5fe68cd1 <_ebss+0x3fe67e15>
    6548:	32512023          	sw	t0,800(sp)
    654c:	32612223          	sw	t1,804(sp)
    6550:	f532d837          	lui	a6,0xf532d
    6554:	17780813          	add	a6,a6,375 # f532d177 <_ebss+0xd532c2bb>
    6558:	3e3857b7          	lui	a5,0x3e385
    655c:	10d78793          	add	a5,a5,269 # 3e38510d <_ebss+0x1e384251>
    6560:	32f12423          	sw	a5,808(sp)
    6564:	33012623          	sw	a6,812(sp)
    6568:	955767b7          	lui	a5,0x95576
    656c:	a6778793          	add	a5,a5,-1433 # 95575a67 <_ebss+0x75574bab>
    6570:	e56cf737          	lui	a4,0xe56cf
    6574:	ebe70713          	add	a4,a4,-322 # e56ceebe <_ebss+0xc56ce002>
    6578:	32e12823          	sw	a4,816(sp)
    657c:	32f12a23          	sw	a5,820(sp)
    6580:	d6a5f337          	lui	t1,0xd6a5f
    6584:	b8b30313          	add	t1,t1,-1141 # d6a5eb8b <_ebss+0xb6a5dccf>
    6588:	626292b7          	lui	t0,0x62629
    658c:	64d28293          	add	t0,t0,1613 # 6262964d <_ebss+0x42628791>
    6590:	32512c23          	sw	t0,824(sp)
    6594:	32612e23          	sw	t1,828(sp)
    6598:	d00457b7          	lui	a5,0xd0045
    659c:	8d178793          	add	a5,a5,-1839 # d00448d1 <_ebss+0xb0043a15>
    65a0:	087a9737          	lui	a4,0x87a9
    65a4:	63270713          	add	a4,a4,1586 # 87a9632 <_erodata+0x879ffb2>
    65a8:	34e12023          	sw	a4,832(sp)
    65ac:	34f12223          	sw	a5,836(sp)
    65b0:	c73593b7          	lui	t2,0xc7359
    65b4:	16a38393          	add	t2,t2,362 # c735916a <_ebss+0xa73582ae>
    65b8:	2c5bf337          	lui	t1,0x2c5bf
    65bc:	d7b30313          	add	t1,t1,-645 # 2c5bed7b <_ebss+0xc5bdebf>
    65c0:	34612423          	sw	t1,840(sp)
    65c4:	34712623          	sw	t2,844(sp)
    65c8:	c66d7337          	lui	t1,0xc66d7
    65cc:	3df30313          	add	t1,t1,991 # c66d73df <_ebss+0xa66d6523>
    65d0:	a740c2b7          	lui	t0,0xa740c
    65d4:	43d28293          	add	t0,t0,1085 # a740c43d <_ebss+0x8740b581>
    65d8:	34512823          	sw	t0,848(sp)
    65dc:	34612a23          	sw	t1,852(sp)
    65e0:	b829b8b7          	lui	a7,0xb829b
    65e4:	92c88893          	add	a7,a7,-1748 # b829a92c <_ebss+0x98299a70>
    65e8:	2edc2837          	lui	a6,0x2edc2
    65ec:	45a80813          	add	a6,a6,1114 # 2edc245a <_ebss+0xedc159e>
    65f0:	35012c23          	sw	a6,856(sp)
    65f4:	35112e23          	sw	a7,860(sp)
    65f8:	b9b2ce37          	lui	t3,0xb9b2c
    65fc:	cbfe0e13          	add	t3,t3,-833 # b9b2bcbf <_ebss+0x99b2ae03>
    6600:	21ebe8b7          	lui	a7,0x21ebe
    6604:	0ad88893          	add	a7,a7,173 # 21ebe0ad <_ebss+0x1ebd1f1>
    6608:	37112023          	sw	a7,864(sp)
    660c:	37c12223          	sw	t3,868(sp)
    6610:	788ba637          	lui	a2,0x788ba
    6614:	8be60613          	add	a2,a2,-1858 # 788b98be <_ebss+0x588b8a02>
    6618:	13c355b7          	lui	a1,0x13c35
    661c:	38358593          	add	a1,a1,899 # 13c35383 <_erodata+0x13c2bd03>
    6620:	36b12423          	sw	a1,872(sp)
    6624:	36c12623          	sw	a2,876(sp)
    6628:	6d394e37          	lui	t3,0x6d394
    662c:	28ee0e13          	add	t3,t3,654 # 6d39428e <_ebss+0x4d3933d2>
    6630:	758148b7          	lui	a7,0x75814
    6634:	e0688893          	add	a7,a7,-506 # 75813e06 <_ebss+0x55812f4a>
    6638:	37112823          	sw	a7,880(sp)
    663c:	37c12a23          	sw	t3,884(sp)
    6640:	f9d37737          	lui	a4,0xf9d37
    6644:	6f670713          	add	a4,a4,1782 # f9d376f6 <_ebss+0xd9d3683a>
    6648:	73fe16b7          	lui	a3,0x73fe1
    664c:	30868693          	add	a3,a3,776 # 73fe1308 <_ebss+0x53fe044c>
    6650:	36d12c23          	sw	a3,888(sp)
    6654:	36e12e23          	sw	a4,892(sp)
    6658:	6f1cb8b7          	lui	a7,0x6f1cb
    665c:	a1288893          	add	a7,a7,-1518 # 6f1caa12 <_ebss+0x4f1c9b56>
    6660:	1044a837          	lui	a6,0x1044a
    6664:	72f80813          	add	a6,a6,1839 # 1044a72f <_erodata+0x104410af>
    6668:	39012023          	sw	a6,896(sp)
    666c:	39112223          	sw	a7,900(sp)
    6670:	522cc637          	lui	a2,0x522cc
    6674:	b8260613          	add	a2,a2,-1150 # 522cbb82 <_ebss+0x322cacc6>
    6678:	90a7e5b7          	lui	a1,0x90a7e
    667c:	63a58593          	add	a1,a1,1594 # 90a7e63a <_ebss+0x70a7d77e>
    6680:	38b12423          	sw	a1,904(sp)
    6684:	38c12623          	sw	a2,908(sp)
    6688:	948595b7          	lui	a1,0x94859
    668c:	b6858593          	add	a1,a1,-1176 # 94858b68 <_ebss+0x74857cac>
    6690:	d9a03537          	lui	a0,0xd9a03
    6694:	bf350513          	add	a0,a0,-1037 # d9a02bf3 <_ebss+0xb9a01d37>
    6698:	38a12823          	sw	a0,912(sp)
    669c:	38b12a23          	sw	a1,916(sp)
    66a0:	70004eb7          	lui	t4,0x70004
    66a4:	cd3e8e93          	add	t4,t4,-813 # 70003cd3 <_ebss+0x50002e17>
    66a8:	56f1ce37          	lui	t3,0x56f1c
    66ac:	467e0e13          	add	t3,t3,1127 # 56f1c467 <_ebss+0x36f1b5ab>
    66b0:	39c12c23          	sw	t3,920(sp)
    66b4:	39d12e23          	sw	t4,924(sp)
    66b8:	6315bf37          	lui	t5,0x6315b
    66bc:	062f0f13          	add	t5,t5,98 # 6315b062 <_ebss+0x4315a1a6>
    66c0:	5ce6eeb7          	lui	t4,0x5ce6e
    66c4:	312e8e93          	add	t4,t4,786 # 5ce6e312 <_ebss+0x3ce6d456>
    66c8:	3bd12023          	sw	t4,928(sp)
    66cc:	3be12223          	sw	t5,932(sp)
    66d0:	728be737          	lui	a4,0x728be
    66d4:	16070713          	add	a4,a4,352 # 728be160 <_ebss+0x528bd2a4>
    66d8:	7f0576b7          	lui	a3,0x7f057
    66dc:	47968693          	add	a3,a3,1145 # 7f057479 <_ebss+0x5f0565bd>
    66e0:	3ad12423          	sw	a3,936(sp)
    66e4:	3ae12623          	sw	a4,940(sp)
    66e8:	f2bab5b7          	lui	a1,0xf2bab
    66ec:	d7858593          	add	a1,a1,-648 # f2baad78 <_ebss+0xd2ba9ebc>
    66f0:	2f2a0537          	lui	a0,0x2f2a0
    66f4:	2f650513          	add	a0,a0,758 # 2f2a02f6 <_ebss+0xf29f43a>
    66f8:	3aa12823          	sw	a0,944(sp)
    66fc:	3ab12a23          	sw	a1,948(sp)
    6700:	0ec88e37          	lui	t3,0xec88
    6704:	707e0e13          	add	t3,t3,1799 # ec88707 <_erodata+0xec7f087>
    6708:	2f0d38b7          	lui	a7,0x2f0d3
    670c:	3bc88893          	add	a7,a7,956 # 2f0d33bc <_ebss+0xf0d2500>
    6710:	3b112c23          	sw	a7,952(sp)
    6714:	3bc12e23          	sw	t3,956(sp)
    6718:	45a47537          	lui	a0,0x45a47
    671c:	f7a50513          	add	a0,a0,-134 # 45a46f7a <_ebss+0x25a460be>
    6720:	514873b7          	lui	t2,0x51487
    6724:	a8738393          	add	t2,t2,-1401 # 51486a87 <_ebss+0x31485bcb>
    6728:	3c712023          	sw	t2,960(sp)
    672c:	3ca12223          	sw	a0,964(sp)
    6730:	c3af8e37          	lui	t3,0xc3af8
    6734:	833e0e13          	add	t3,t3,-1997 # c3af7833 <_ebss+0xa3af6977>
    6738:	549ec8b7          	lui	a7,0x549ec
    673c:	33188893          	add	a7,a7,817 # 549ec331 <_ebss+0x349eb475>
    6740:	3d112423          	sw	a7,968(sp)
    6744:	3dc12623          	sw	t3,972(sp)
    6748:	1d010f13          	add	t5,sp,464
    674c:	05e12a23          	sw	t5,84(sp)
    6750:	1d810893          	add	a7,sp,472
    6754:	05112423          	sw	a7,72(sp)
    6758:	1e010e13          	add	t3,sp,480
    675c:	05c12c23          	sw	t3,88(sp)
    6760:	1e810393          	add	t2,sp,488
    6764:	04712623          	sw	t2,76(sp)
    6768:	11010513          	add	a0,sp,272
    676c:	13010993          	add	s3,sp,304
    6770:	15010913          	add	s2,sp,336
    6774:	a81fd0ef          	jal	41f4 <make_fzero>
    6778:	00098513          	mv	a0,s3
    677c:	abdfd0ef          	jal	4238 <make_fone>
    6780:	00090513          	mv	a0,s2
    6784:	a71fd0ef          	jal	41f4 <make_fzero>
    6788:	00000f13          	li	t5,0
    678c:	00000e93          	li	t4,0
    6790:	1fd12823          	sw	t4,496(sp)
    6794:	1fe12a23          	sw	t5,500(sp)
    6798:	1fd12c23          	sw	t4,504(sp)
    679c:	1fe12e23          	sw	t5,508(sp)
    67a0:	21d12023          	sw	t4,512(sp)
    67a4:	21e12223          	sw	t5,516(sp)
    67a8:	21d12423          	sw	t4,520(sp)
    67ac:	21e12623          	sw	t5,524(sp)
    67b0:	21d12823          	sw	t4,528(sp)
    67b4:	21e12a23          	sw	t5,532(sp)
    67b8:	21d12c23          	sw	t4,536(sp)
    67bc:	21e12e23          	sw	t5,540(sp)
    67c0:	23d12023          	sw	t4,544(sp)
    67c4:	23e12223          	sw	t5,548(sp)
    67c8:	23d12423          	sw	t4,552(sp)
    67cc:	23e12623          	sw	t5,556(sp)
    67d0:	23d12823          	sw	t4,560(sp)
    67d4:	23e12a23          	sw	t5,564(sp)
    67d8:	23d12c23          	sw	t4,568(sp)
    67dc:	23e12e23          	sw	t5,572(sp)
    67e0:	25d12023          	sw	t4,576(sp)
    67e4:	25e12223          	sw	t5,580(sp)
    67e8:	25d12423          	sw	t4,584(sp)
    67ec:	25e12623          	sw	t5,588(sp)
    67f0:	00000a13          	li	s4,0
    67f4:	00000993          	li	s3,0
    67f8:	00000513          	li	a0,0
    67fc:	00000393          	li	t2,0
    6800:	3c712823          	sw	t2,976(sp)
    6804:	3ca12a23          	sw	a0,980(sp)
    6808:	3c712c23          	sw	t2,984(sp)
    680c:	3ca12e23          	sw	a0,988(sp)
    6810:	3e712023          	sw	t2,992(sp)
    6814:	3ea12223          	sw	a0,996(sp)
    6818:	3e712423          	sw	t2,1000(sp)
    681c:	3ea12623          	sw	a0,1004(sp)
    6820:	3e712823          	sw	t2,1008(sp)
    6824:	3ea12a23          	sw	a0,1012(sp)
    6828:	3e712c23          	sw	t2,1016(sp)
    682c:	3ea12e23          	sw	a0,1020(sp)
    6830:	40712023          	sw	t2,1024(sp)
    6834:	40a12223          	sw	a0,1028(sp)
    6838:	40712423          	sw	t2,1032(sp)
    683c:	40a12623          	sw	a0,1036(sp)
    6840:	40712823          	sw	t2,1040(sp)
    6844:	40a12a23          	sw	a0,1044(sp)
    6848:	40712c23          	sw	t2,1048(sp)
    684c:	40a12e23          	sw	a0,1052(sp)
    6850:	42712023          	sw	t2,1056(sp)
    6854:	42a12223          	sw	a0,1060(sp)
    6858:	42712423          	sw	t2,1064(sp)
    685c:	42a12623          	sw	a0,1068(sp)
    6860:	42712823          	sw	t2,1072(sp)
    6864:	42a12a23          	sw	a0,1076(sp)
    6868:	42712c23          	sw	t2,1080(sp)
    686c:	42a12e23          	sw	a0,1084(sp)
    6870:	44712023          	sw	t2,1088(sp)
    6874:	44a12223          	sw	a0,1092(sp)
    6878:	44712423          	sw	t2,1096(sp)
    687c:	44a12623          	sw	a0,1100(sp)
    6880:	44712823          	sw	t2,1104(sp)
    6884:	44a12a23          	sw	a0,1108(sp)
    6888:	44712c23          	sw	t2,1112(sp)
    688c:	44a12e23          	sw	a0,1116(sp)
    6890:	46712023          	sw	t2,1120(sp)
    6894:	46a12223          	sw	a0,1124(sp)
    6898:	46712423          	sw	t2,1128(sp)
    689c:	46a12623          	sw	a0,1132(sp)
    68a0:	11010713          	add	a4,sp,272
    68a4:	04e12823          	sw	a4,80(sp)
    68a8:	15010293          	add	t0,sp,336
    68ac:	04512e23          	sw	t0,92(sp)
    68b0:	11010c13          	add	s8,sp,272
    68b4:	13010b93          	add	s7,sp,304
    68b8:	15010a93          	add	s5,sp,336
    68bc:	3d010c93          	add	s9,sp,976
    68c0:	3f010913          	add	s2,sp,1008
    68c4:	41010d13          	add	s10,sp,1040
    68c8:	43010d93          	add	s11,sp,1072
    68cc:	45010513          	add	a0,sp,1104
    68d0:	02a12e23          	sw	a0,60(sp)
    68d4:	11010e93          	add	t4,sp,272
    68d8:	05d12023          	sw	t4,64(sp)
    68dc:	13010793          	add	a5,sp,304
    68e0:	02f12c23          	sw	a5,56(sp)
    68e4:	15010813          	add	a6,sp,336
    68e8:	05012223          	sw	a6,68(sp)
    68ec:	04012583          	lw	a1,64(sp)
    68f0:	000c8513          	mv	a0,s9
    68f4:	eccfe0ef          	jal	4fc0 <fsqr>
    68f8:	03812583          	lw	a1,56(sp)
    68fc:	00090513          	mv	a0,s2
    6900:	ec0fe0ef          	jal	4fc0 <fsqr>
    6904:	04412583          	lw	a1,68(sp)
    6908:	000d0513          	mv	a0,s10
    690c:	eb4fe0ef          	jal	4fc0 <fsqr>
    6910:	03812603          	lw	a2,56(sp)
    6914:	04012583          	lw	a1,64(sp)
    6918:	000d8513          	mv	a0,s11
    691c:	e20fe0ef          	jal	4f3c <fmul>
    6920:	000d8613          	mv	a2,s11
    6924:	000d8593          	mv	a1,s11
    6928:	000d8513          	mv	a0,s11
    692c:	969fd0ef          	jal	4294 <fadd>
    6930:	04412603          	lw	a2,68(sp)
    6934:	03812583          	lw	a1,56(sp)
    6938:	03c12503          	lw	a0,60(sp)
    693c:	e00fe0ef          	jal	4f3c <fmul>
    6940:	05c12603          	lw	a2,92(sp)
    6944:	05012583          	lw	a1,80(sp)
    6948:	000a8513          	mv	a0,s5
    694c:	df0fe0ef          	jal	4f3c <fmul>
    6950:	000a8613          	mv	a2,s5
    6954:	000a8593          	mv	a1,s5
    6958:	000a8513          	mv	a0,s5
    695c:	939fd0ef          	jal	4294 <fadd>
    6960:	000d0593          	mv	a1,s10
    6964:	000b8513          	mv	a0,s7
    6968:	edcfe0ef          	jal	5044 <fmul_by_b_coeff>
    696c:	000a8613          	mv	a2,s5
    6970:	000b8593          	mv	a1,s7
    6974:	000b8513          	mv	a0,s7
    6978:	9a1fd0ef          	jal	4318 <fsub>
    697c:	000b8613          	mv	a2,s7
    6980:	000b8593          	mv	a1,s7
    6984:	000c0513          	mv	a0,s8
    6988:	90dfd0ef          	jal	4294 <fadd>
    698c:	000b8613          	mv	a2,s7
    6990:	000c0593          	mv	a1,s8
    6994:	000b8513          	mv	a0,s7
    6998:	8fdfd0ef          	jal	4294 <fadd>
    699c:	000b8613          	mv	a2,s7
    69a0:	00090593          	mv	a1,s2
    69a4:	000c0513          	mv	a0,s8
    69a8:	971fd0ef          	jal	4318 <fsub>
    69ac:	000b8613          	mv	a2,s7
    69b0:	00090593          	mv	a1,s2
    69b4:	000b8513          	mv	a0,s7
    69b8:	8ddfd0ef          	jal	4294 <fadd>
    69bc:	000b8613          	mv	a2,s7
    69c0:	000c0593          	mv	a1,s8
    69c4:	000b8513          	mv	a0,s7
    69c8:	d74fe0ef          	jal	4f3c <fmul>
    69cc:	000d8613          	mv	a2,s11
    69d0:	000c0593          	mv	a1,s8
    69d4:	000c0513          	mv	a0,s8
    69d8:	d64fe0ef          	jal	4f3c <fmul>
    69dc:	000d0613          	mv	a2,s10
    69e0:	000d0593          	mv	a1,s10
    69e4:	000d8513          	mv	a0,s11
    69e8:	8adfd0ef          	jal	4294 <fadd>
    69ec:	000d8613          	mv	a2,s11
    69f0:	000d0593          	mv	a1,s10
    69f4:	000d0513          	mv	a0,s10
    69f8:	89dfd0ef          	jal	4294 <fadd>
    69fc:	000a8593          	mv	a1,s5
    6a00:	000a8513          	mv	a0,s5
    6a04:	e40fe0ef          	jal	5044 <fmul_by_b_coeff>
    6a08:	000d0613          	mv	a2,s10
    6a0c:	000a8593          	mv	a1,s5
    6a10:	000a8513          	mv	a0,s5
    6a14:	905fd0ef          	jal	4318 <fsub>
    6a18:	000c8613          	mv	a2,s9
    6a1c:	000a8593          	mv	a1,s5
    6a20:	000a8513          	mv	a0,s5
    6a24:	8f5fd0ef          	jal	4318 <fsub>
    6a28:	000a8613          	mv	a2,s5
    6a2c:	000a8593          	mv	a1,s5
    6a30:	000d8513          	mv	a0,s11
    6a34:	861fd0ef          	jal	4294 <fadd>
    6a38:	000d8613          	mv	a2,s11
    6a3c:	000a8593          	mv	a1,s5
    6a40:	000a8513          	mv	a0,s5
    6a44:	851fd0ef          	jal	4294 <fadd>
    6a48:	000c8613          	mv	a2,s9
    6a4c:	000c8593          	mv	a1,s9
    6a50:	000d8513          	mv	a0,s11
    6a54:	841fd0ef          	jal	4294 <fadd>
    6a58:	000c8613          	mv	a2,s9
    6a5c:	000d8593          	mv	a1,s11
    6a60:	000c8513          	mv	a0,s9
    6a64:	831fd0ef          	jal	4294 <fadd>
    6a68:	000d0613          	mv	a2,s10
    6a6c:	000c8593          	mv	a1,s9
    6a70:	000c8513          	mv	a0,s9
    6a74:	8a5fd0ef          	jal	4318 <fsub>
    6a78:	000a8613          	mv	a2,s5
    6a7c:	000c8593          	mv	a1,s9
    6a80:	000c8513          	mv	a0,s9
    6a84:	cb8fe0ef          	jal	4f3c <fmul>
    6a88:	000c8613          	mv	a2,s9
    6a8c:	000b8593          	mv	a1,s7
    6a90:	000b8513          	mv	a0,s7
    6a94:	801fd0ef          	jal	4294 <fadd>
    6a98:	03c12603          	lw	a2,60(sp)
    6a9c:	03c12583          	lw	a1,60(sp)
    6aa0:	000c8513          	mv	a0,s9
    6aa4:	ff0fd0ef          	jal	4294 <fadd>
    6aa8:	000a8613          	mv	a2,s5
    6aac:	000c8593          	mv	a1,s9
    6ab0:	000a8513          	mv	a0,s5
    6ab4:	c88fe0ef          	jal	4f3c <fmul>
    6ab8:	000a8613          	mv	a2,s5
    6abc:	000c0593          	mv	a1,s8
    6ac0:	000c0513          	mv	a0,s8
    6ac4:	855fd0ef          	jal	4318 <fsub>
    6ac8:	00090613          	mv	a2,s2
    6acc:	000c8593          	mv	a1,s9
    6ad0:	000a8513          	mv	a0,s5
    6ad4:	c68fe0ef          	jal	4f3c <fmul>
    6ad8:	000a8613          	mv	a2,s5
    6adc:	000a8593          	mv	a1,s5
    6ae0:	000a8513          	mv	a0,s5
    6ae4:	fb0fd0ef          	jal	4294 <fadd>
    6ae8:	000a8613          	mv	a2,s5
    6aec:	000a8593          	mv	a1,s5
    6af0:	000a8513          	mv	a0,s5
    6af4:	fa0fd0ef          	jal	4294 <fadd>
    6af8:	00198993          	add	s3,s3,1
    6afc:	00400f93          	li	t6,4
    6b00:	cff9ece3          	bltu	s3,t6,67f8 <Hacl_P256_ecdsa_sign_p256_without_hash+0x8f0>
    6b04:	04000f13          	li	t5,64
    6b08:	002a1e13          	sll	t3,s4,0x2
    6b0c:	41cf0533          	sub	a0,t5,t3
    6b10:	ffc50613          	add	a2,a0,-4
    6b14:	00100513          	li	a0,1
    6b18:	00400693          	li	a3,4
    6b1c:	04c12583          	lw	a1,76(sp)
    6b20:	ae5fb0ef          	jal	2604 <bn_get_bits_u64>
    6b24:	00058613          	mv	a2,a1
    6b28:	00050593          	mv	a1,a0
    6b2c:	00009537          	lui	a0,0x9
    6b30:	08050513          	add	a0,a0,128 # 9080 <precomp_g_pow2_192_table_w4>
    6b34:	1f010693          	add	a3,sp,496
    6b38:	a65fe0ef          	jal	559c <precomp_get_consttime>
    6b3c:	1f010613          	add	a2,sp,496
    6b40:	000b0593          	mv	a1,s6
    6b44:	000b0513          	mv	a0,s6
    6b48:	d88fe0ef          	jal	50d0 <point_add>
    6b4c:	04000e93          	li	t4,64
    6b50:	002a1793          	sll	a5,s4,0x2
    6b54:	40fe85b3          	sub	a1,t4,a5
    6b58:	ffc58613          	add	a2,a1,-4
    6b5c:	00100513          	li	a0,1
    6b60:	00400693          	li	a3,4
    6b64:	05812583          	lw	a1,88(sp)
    6b68:	a9dfb0ef          	jal	2604 <bn_get_bits_u64>
    6b6c:	00058613          	mv	a2,a1
    6b70:	00050593          	mv	a1,a0
    6b74:	00009537          	lui	a0,0x9
    6b78:	a8050513          	add	a0,a0,-1408 # 8a80 <precomp_g_pow2_128_table_w4>
    6b7c:	1f010693          	add	a3,sp,496
    6b80:	a1dfe0ef          	jal	559c <precomp_get_consttime>
    6b84:	1f010613          	add	a2,sp,496
    6b88:	000b0593          	mv	a1,s6
    6b8c:	000b0513          	mv	a0,s6
    6b90:	d40fe0ef          	jal	50d0 <point_add>
    6b94:	04000313          	li	t1,64
    6b98:	002a1e93          	sll	t4,s4,0x2
    6b9c:	41d308b3          	sub	a7,t1,t4
    6ba0:	ffc88613          	add	a2,a7,-4
    6ba4:	00100513          	li	a0,1
    6ba8:	00400693          	li	a3,4
    6bac:	04812583          	lw	a1,72(sp)
    6bb0:	a55fb0ef          	jal	2604 <bn_get_bits_u64>
    6bb4:	00008f37          	lui	t5,0x8
    6bb8:	480f0f13          	add	t5,t5,1152 # 8480 <precomp_g_pow2_64_table_w4>
    6bbc:	1f010693          	add	a3,sp,496
    6bc0:	00058613          	mv	a2,a1
    6bc4:	00050593          	mv	a1,a0
    6bc8:	000f0513          	mv	a0,t5
    6bcc:	9d1fe0ef          	jal	559c <precomp_get_consttime>
    6bd0:	1f010613          	add	a2,sp,496
    6bd4:	000b0593          	mv	a1,s6
    6bd8:	000b0513          	mv	a0,s6
    6bdc:	cf4fe0ef          	jal	50d0 <point_add>
    6be0:	04000713          	li	a4,64
    6be4:	002a1693          	sll	a3,s4,0x2
    6be8:	40d708b3          	sub	a7,a4,a3
    6bec:	ffc88613          	add	a2,a7,-4
    6bf0:	00100513          	li	a0,1
    6bf4:	00400693          	li	a3,4
    6bf8:	05412583          	lw	a1,84(sp)
    6bfc:	a09fb0ef          	jal	2604 <bn_get_bits_u64>
    6c00:	00058613          	mv	a2,a1
    6c04:	00050593          	mv	a1,a0
    6c08:	00008537          	lui	a0,0x8
    6c0c:	e8050513          	add	a0,a0,-384 # 7e80 <precomp_basepoint_table_w4>
    6c10:	1f010693          	add	a3,sp,496
    6c14:	989fe0ef          	jal	559c <precomp_get_consttime>
    6c18:	1f010613          	add	a2,sp,496
    6c1c:	000b0593          	mv	a1,s6
    6c20:	000b0513          	mv	a0,s6
    6c24:	cacfe0ef          	jal	50d0 <point_add>
    6c28:	001a0a13          	add	s4,s4,1
    6c2c:	01000f93          	li	t6,16
    6c30:	bdfa62e3          	bltu	s4,t6,67f4 <Hacl_P256_ecdsa_sign_p256_without_hash+0x8ec>
    6c34:	17010993          	add	s3,sp,368
    6c38:	00000513          	li	a0,0
    6c3c:	00000393          	li	t2,0
    6c40:	1e712823          	sw	t2,496(sp)
    6c44:	1ea12a23          	sw	a0,500(sp)
    6c48:	1e712c23          	sw	t2,504(sp)
    6c4c:	1ea12e23          	sw	a0,508(sp)
    6c50:	20712023          	sw	t2,512(sp)
    6c54:	20a12223          	sw	a0,516(sp)
    6c58:	20712423          	sw	t2,520(sp)
    6c5c:	20a12623          	sw	a0,524(sp)
    6c60:	11010b13          	add	s6,sp,272
    6c64:	15010c13          	add	s8,sp,336
    6c68:	1f010c93          	add	s9,sp,496
    6c6c:	20712823          	sw	t2,528(sp)
    6c70:	20a12a23          	sw	a0,532(sp)
    6c74:	20712c23          	sw	t2,536(sp)
    6c78:	20a12e23          	sw	a0,540(sp)
    6c7c:	22712023          	sw	t2,544(sp)
    6c80:	22a12223          	sw	a0,548(sp)
    6c84:	22712423          	sw	t2,552(sp)
    6c88:	22a12623          	sw	a0,556(sp)
    6c8c:	22712823          	sw	t2,560(sp)
    6c90:	22a12a23          	sw	a0,564(sp)
    6c94:	22712c23          	sw	t2,568(sp)
    6c98:	22a12e23          	sw	a0,572(sp)
    6c9c:	24712023          	sw	t2,576(sp)
    6ca0:	24a12223          	sw	a0,580(sp)
    6ca4:	24712423          	sw	t2,584(sp)
    6ca8:	24a12623          	sw	a0,588(sp)
    6cac:	24712823          	sw	t2,592(sp)
    6cb0:	24a12a23          	sw	a0,596(sp)
    6cb4:	24712c23          	sw	t2,600(sp)
    6cb8:	24a12e23          	sw	a0,604(sp)
    6cbc:	26712023          	sw	t2,608(sp)
    6cc0:	26a12223          	sw	a0,612(sp)
    6cc4:	26712423          	sw	t2,616(sp)
    6cc8:	26a12623          	sw	a0,620(sp)
    6ccc:	26712823          	sw	t2,624(sp)
    6cd0:	26a12a23          	sw	a0,628(sp)
    6cd4:	26712c23          	sw	t2,632(sp)
    6cd8:	26a12e23          	sw	a0,636(sp)
    6cdc:	28712023          	sw	t2,640(sp)
    6ce0:	28a12223          	sw	a0,644(sp)
    6ce4:	28712423          	sw	t2,648(sp)
    6ce8:	28a12623          	sw	a0,652(sp)
    6cec:	21010a13          	add	s4,sp,528
    6cf0:	23010a93          	add	s5,sp,560
    6cf4:	25010b93          	add	s7,sp,592
    6cf8:	27010d13          	add	s10,sp,624
    6cfc:	02000613          	li	a2,32
    6d00:	000c0593          	mv	a1,s8
    6d04:	000a8513          	mv	a0,s5
    6d08:	e60f90ef          	jal	368 <memcpy>
    6d0c:	00000913          	li	s2,0
    6d10:	000a8593          	mv	a1,s5
    6d14:	000a8513          	mv	a0,s5
    6d18:	aa8fe0ef          	jal	4fc0 <fsqr>
    6d1c:	00190913          	add	s2,s2,1
    6d20:	00100f93          	li	t6,1
    6d24:	fff966e3          	bltu	s2,t6,6d10 <Hacl_P256_ecdsa_sign_p256_without_hash+0xe08>
    6d28:	000c0613          	mv	a2,s8
    6d2c:	000a8593          	mv	a1,s5
    6d30:	000a8513          	mv	a0,s5
    6d34:	a08fe0ef          	jal	4f3c <fmul>
    6d38:	02000613          	li	a2,32
    6d3c:	000a8593          	mv	a1,s5
    6d40:	000a0513          	mv	a0,s4
    6d44:	e24f90ef          	jal	368 <memcpy>
    6d48:	00000913          	li	s2,0
    6d4c:	000a0593          	mv	a1,s4
    6d50:	000a0513          	mv	a0,s4
    6d54:	a6cfe0ef          	jal	4fc0 <fsqr>
    6d58:	00190913          	add	s2,s2,1
    6d5c:	00100f93          	li	t6,1
    6d60:	fff966e3          	bltu	s2,t6,6d4c <Hacl_P256_ecdsa_sign_p256_without_hash+0xe44>
    6d64:	000c0613          	mv	a2,s8
    6d68:	000a0593          	mv	a1,s4
    6d6c:	000a0513          	mv	a0,s4
    6d70:	9ccfe0ef          	jal	4f3c <fmul>
    6d74:	02000613          	li	a2,32
    6d78:	000a0593          	mv	a1,s4
    6d7c:	000b8513          	mv	a0,s7
    6d80:	de8f90ef          	jal	368 <memcpy>
    6d84:	00000913          	li	s2,0
    6d88:	000b8593          	mv	a1,s7
    6d8c:	000b8513          	mv	a0,s7
    6d90:	a30fe0ef          	jal	4fc0 <fsqr>
    6d94:	00190913          	add	s2,s2,1
    6d98:	00300f93          	li	t6,3
    6d9c:	fff966e3          	bltu	s2,t6,6d88 <Hacl_P256_ecdsa_sign_p256_without_hash+0xe80>
    6da0:	000a0613          	mv	a2,s4
    6da4:	000b8593          	mv	a1,s7
    6da8:	000b8513          	mv	a0,s7
    6dac:	990fe0ef          	jal	4f3c <fmul>
    6db0:	02000613          	li	a2,32
    6db4:	000b8593          	mv	a1,s7
    6db8:	000d0513          	mv	a0,s10
    6dbc:	dacf90ef          	jal	368 <memcpy>
    6dc0:	00000913          	li	s2,0
    6dc4:	000d0593          	mv	a1,s10
    6dc8:	000d0513          	mv	a0,s10
    6dcc:	9f4fe0ef          	jal	4fc0 <fsqr>
    6dd0:	00190913          	add	s2,s2,1
    6dd4:	00600f93          	li	t6,6
    6dd8:	fff966e3          	bltu	s2,t6,6dc4 <Hacl_P256_ecdsa_sign_p256_without_hash+0xebc>
    6ddc:	000b8613          	mv	a2,s7
    6de0:	000d0593          	mv	a1,s10
    6de4:	000d0513          	mv	a0,s10
    6de8:	954fe0ef          	jal	4f3c <fmul>
    6dec:	02000613          	li	a2,32
    6df0:	000d0593          	mv	a1,s10
    6df4:	000b8513          	mv	a0,s7
    6df8:	d70f90ef          	jal	368 <memcpy>
    6dfc:	00000913          	li	s2,0
    6e00:	000b8593          	mv	a1,s7
    6e04:	000b8513          	mv	a0,s7
    6e08:	9b8fe0ef          	jal	4fc0 <fsqr>
    6e0c:	00190913          	add	s2,s2,1
    6e10:	00300f93          	li	t6,3
    6e14:	fff966e3          	bltu	s2,t6,6e00 <Hacl_P256_ecdsa_sign_p256_without_hash+0xef8>
    6e18:	000a0613          	mv	a2,s4
    6e1c:	000b8593          	mv	a1,s7
    6e20:	000b8513          	mv	a0,s7
    6e24:	918fe0ef          	jal	4f3c <fmul>
    6e28:	02000613          	li	a2,32
    6e2c:	000b8593          	mv	a1,s7
    6e30:	000a0513          	mv	a0,s4
    6e34:	d34f90ef          	jal	368 <memcpy>
    6e38:	00000913          	li	s2,0
    6e3c:	000a0593          	mv	a1,s4
    6e40:	000a0513          	mv	a0,s4
    6e44:	97cfe0ef          	jal	4fc0 <fsqr>
    6e48:	00190913          	add	s2,s2,1
    6e4c:	00f00f93          	li	t6,15
    6e50:	fff966e3          	bltu	s2,t6,6e3c <Hacl_P256_ecdsa_sign_p256_without_hash+0xf34>
    6e54:	000b8613          	mv	a2,s7
    6e58:	000a0593          	mv	a1,s4
    6e5c:	000a0513          	mv	a0,s4
    6e60:	8dcfe0ef          	jal	4f3c <fmul>
    6e64:	02000613          	li	a2,32
    6e68:	000a0593          	mv	a1,s4
    6e6c:	000b8513          	mv	a0,s7
    6e70:	cf8f90ef          	jal	368 <memcpy>
    6e74:	00000913          	li	s2,0
    6e78:	000b8593          	mv	a1,s7
    6e7c:	000b8513          	mv	a0,s7
    6e80:	940fe0ef          	jal	4fc0 <fsqr>
    6e84:	00190913          	add	s2,s2,1
    6e88:	00200f93          	li	t6,2
    6e8c:	fff966e3          	bltu	s2,t6,6e78 <Hacl_P256_ecdsa_sign_p256_without_hash+0xf70>
    6e90:	000a8613          	mv	a2,s5
    6e94:	000b8593          	mv	a1,s7
    6e98:	000b8513          	mv	a0,s7
    6e9c:	8a0fe0ef          	jal	4f3c <fmul>
    6ea0:	02000613          	li	a2,32
    6ea4:	000b8593          	mv	a1,s7
    6ea8:	000a8513          	mv	a0,s5
    6eac:	cbcf90ef          	jal	368 <memcpy>
    6eb0:	00000913          	li	s2,0
    6eb4:	000a8593          	mv	a1,s5
    6eb8:	000a8513          	mv	a0,s5
    6ebc:	904fe0ef          	jal	4fc0 <fsqr>
    6ec0:	00190913          	add	s2,s2,1
    6ec4:	02000f93          	li	t6,32
    6ec8:	fff966e3          	bltu	s2,t6,6eb4 <Hacl_P256_ecdsa_sign_p256_without_hash+0xfac>
    6ecc:	000c0613          	mv	a2,s8
    6ed0:	000a8593          	mv	a1,s5
    6ed4:	000a8513          	mv	a0,s5
    6ed8:	864fe0ef          	jal	4f3c <fmul>
    6edc:	00000913          	li	s2,0
    6ee0:	000a8593          	mv	a1,s5
    6ee4:	000a8513          	mv	a0,s5
    6ee8:	8d8fe0ef          	jal	4fc0 <fsqr>
    6eec:	00190913          	add	s2,s2,1
    6ef0:	08000f93          	li	t6,128
    6ef4:	fff966e3          	bltu	s2,t6,6ee0 <Hacl_P256_ecdsa_sign_p256_without_hash+0xfd8>
    6ef8:	000b8613          	mv	a2,s7
    6efc:	000a8593          	mv	a1,s5
    6f00:	000a8513          	mv	a0,s5
    6f04:	838fe0ef          	jal	4f3c <fmul>
    6f08:	00000913          	li	s2,0
    6f0c:	000a8593          	mv	a1,s5
    6f10:	000a8513          	mv	a0,s5
    6f14:	8acfe0ef          	jal	4fc0 <fsqr>
    6f18:	00190913          	add	s2,s2,1
    6f1c:	02000f93          	li	t6,32
    6f20:	fff966e3          	bltu	s2,t6,6f0c <Hacl_P256_ecdsa_sign_p256_without_hash+0x1004>
    6f24:	000b8613          	mv	a2,s7
    6f28:	000a8593          	mv	a1,s5
    6f2c:	000a8513          	mv	a0,s5
    6f30:	80cfe0ef          	jal	4f3c <fmul>
    6f34:	00000913          	li	s2,0
    6f38:	000a8593          	mv	a1,s5
    6f3c:	000a8513          	mv	a0,s5
    6f40:	880fe0ef          	jal	4fc0 <fsqr>
    6f44:	00190913          	add	s2,s2,1
    6f48:	01e00f93          	li	t6,30
    6f4c:	fff966e3          	bltu	s2,t6,6f38 <Hacl_P256_ecdsa_sign_p256_without_hash+0x1030>
    6f50:	000a0613          	mv	a2,s4
    6f54:	000a8593          	mv	a1,s5
    6f58:	000a8513          	mv	a0,s5
    6f5c:	fe1fd0ef          	jal	4f3c <fmul>
    6f60:	00000913          	li	s2,0
    6f64:	000a8593          	mv	a1,s5
    6f68:	000a8513          	mv	a0,s5
    6f6c:	854fe0ef          	jal	4fc0 <fsqr>
    6f70:	00190913          	add	s2,s2,1
    6f74:	00200f93          	li	t6,2
    6f78:	fff966e3          	bltu	s2,t6,6f64 <Hacl_P256_ecdsa_sign_p256_without_hash+0x105c>
    6f7c:	000c0613          	mv	a2,s8
    6f80:	000a8593          	mv	a1,s5
    6f84:	000b8513          	mv	a0,s7
    6f88:	fb5fd0ef          	jal	4f3c <fmul>
    6f8c:	02000613          	li	a2,32
    6f90:	000b8593          	mv	a1,s7
    6f94:	000c8513          	mv	a0,s9
    6f98:	bd0f90ef          	jal	368 <memcpy>
    6f9c:	1f010613          	add	a2,sp,496
    6fa0:	000b0593          	mv	a1,s6
    6fa4:	00098513          	mv	a0,s3
    6fa8:	f95fd0ef          	jal	4f3c <fmul>
    6fac:	17010593          	add	a1,sp,368
    6fb0:	17010913          	add	s2,sp,368
    6fb4:	00000713          	li	a4,0
    6fb8:	00000693          	li	a3,0
    6fbc:	20d12823          	sw	a3,528(sp)
    6fc0:	20e12a23          	sw	a4,532(sp)
    6fc4:	20d12c23          	sw	a3,536(sp)
    6fc8:	20e12e23          	sw	a4,540(sp)
    6fcc:	22d12023          	sw	a3,544(sp)
    6fd0:	22e12223          	sw	a4,548(sp)
    6fd4:	22d12423          	sw	a3,552(sp)
    6fd8:	22e12623          	sw	a4,556(sp)
    6fdc:	22d12823          	sw	a3,560(sp)
    6fe0:	22e12a23          	sw	a4,564(sp)
    6fe4:	22d12c23          	sw	a3,568(sp)
    6fe8:	22e12e23          	sw	a4,572(sp)
    6fec:	24d12023          	sw	a3,576(sp)
    6ff0:	24e12223          	sw	a4,580(sp)
    6ff4:	24d12423          	sw	a3,584(sp)
    6ff8:	24e12623          	sw	a4,588(sp)
    6ffc:	21010513          	add	a0,sp,528
    7000:	02000613          	li	a2,32
    7004:	b64f90ef          	jal	368 <memcpy>
    7008:	21010593          	add	a1,sp,528
    700c:	00090513          	mv	a0,s2
    7010:	97dfd0ef          	jal	498c <mont_reduction>
    7014:	06412583          	lw	a1,100(sp)
    7018:	06412503          	lw	a0,100(sp)
    701c:	f1cfe0ef          	jal	5738 <qmod_short>
    7020:	00000513          	li	a0,0
    7024:	00000393          	li	t2,0
    7028:	0a712823          	sw	t2,176(sp)
    702c:	0aa12a23          	sw	a0,180(sp)
    7030:	0a712c23          	sw	t2,184(sp)
    7034:	0aa12e23          	sw	a0,188(sp)
    7038:	0c712023          	sw	t2,192(sp)
    703c:	0ca12223          	sw	a0,196(sp)
    7040:	0c712423          	sw	t2,200(sp)
    7044:	0ca12623          	sw	a0,204(sp)
    7048:	1d010b13          	add	s6,sp,464
    704c:	0b010d13          	add	s10,sp,176
    7050:	20712823          	sw	t2,528(sp)
    7054:	20a12a23          	sw	a0,532(sp)
    7058:	20712c23          	sw	t2,536(sp)
    705c:	20a12e23          	sw	a0,540(sp)
    7060:	22712023          	sw	t2,544(sp)
    7064:	22a12223          	sw	a0,548(sp)
    7068:	22712423          	sw	t2,552(sp)
    706c:	22a12623          	sw	a0,556(sp)
    7070:	22712823          	sw	t2,560(sp)
    7074:	22a12a23          	sw	a0,564(sp)
    7078:	22712c23          	sw	t2,568(sp)
    707c:	22a12e23          	sw	a0,572(sp)
    7080:	24712023          	sw	t2,576(sp)
    7084:	24a12223          	sw	a0,580(sp)
    7088:	24712423          	sw	t2,584(sp)
    708c:	24a12623          	sw	a0,588(sp)
    7090:	24712823          	sw	t2,592(sp)
    7094:	24a12a23          	sw	a0,596(sp)
    7098:	24712c23          	sw	t2,600(sp)
    709c:	24a12e23          	sw	a0,604(sp)
    70a0:	26712023          	sw	t2,608(sp)
    70a4:	26a12223          	sw	a0,612(sp)
    70a8:	26712423          	sw	t2,616(sp)
    70ac:	26a12623          	sw	a0,620(sp)
    70b0:	26712823          	sw	t2,624(sp)
    70b4:	26a12a23          	sw	a0,628(sp)
    70b8:	26712c23          	sw	t2,632(sp)
    70bc:	26a12e23          	sw	a0,636(sp)
    70c0:	28712023          	sw	t2,640(sp)
    70c4:	28a12223          	sw	a0,644(sp)
    70c8:	28712423          	sw	t2,648(sp)
    70cc:	28a12623          	sw	a0,652(sp)
    70d0:	28712823          	sw	t2,656(sp)
    70d4:	28a12a23          	sw	a0,660(sp)
    70d8:	28712c23          	sw	t2,664(sp)
    70dc:	28a12e23          	sw	a0,668(sp)
    70e0:	2a712023          	sw	t2,672(sp)
    70e4:	2aa12223          	sw	a0,676(sp)
    70e8:	2a712423          	sw	t2,680(sp)
    70ec:	2aa12623          	sw	a0,684(sp)
    70f0:	2a712823          	sw	t2,688(sp)
    70f4:	2aa12a23          	sw	a0,692(sp)
    70f8:	2a712c23          	sw	t2,696(sp)
    70fc:	2aa12e23          	sw	a0,700(sp)
    7100:	2c712023          	sw	t2,704(sp)
    7104:	2ca12223          	sw	a0,708(sp)
    7108:	2c712423          	sw	t2,712(sp)
    710c:	2ca12623          	sw	a0,716(sp)
    7110:	2c712823          	sw	t2,720(sp)
    7114:	2ca12a23          	sw	a0,724(sp)
    7118:	2c712c23          	sw	t2,728(sp)
    711c:	2ca12e23          	sw	a0,732(sp)
    7120:	2e712023          	sw	t2,736(sp)
    7124:	2ea12223          	sw	a0,740(sp)
    7128:	2e712423          	sw	t2,744(sp)
    712c:	2ea12623          	sw	a0,748(sp)
    7130:	21010a93          	add	s5,sp,528
    7134:	23010c13          	add	s8,sp,560
    7138:	25010a13          	add	s4,sp,592
    713c:	27010c93          	add	s9,sp,624
    7140:	29010b93          	add	s7,sp,656
    7144:	2b010d93          	add	s11,sp,688
    7148:	2d010993          	add	s3,sp,720
    714c:	02000613          	li	a2,32
    7150:	000b0593          	mv	a1,s6
    7154:	000a8513          	mv	a0,s5
    7158:	a10f90ef          	jal	368 <memcpy>
    715c:	00000913          	li	s2,0
    7160:	000a8593          	mv	a1,s5
    7164:	000a8513          	mv	a0,s5
    7168:	d1dfe0ef          	jal	5e84 <qsqr>
    716c:	00190913          	add	s2,s2,1
    7170:	00100f93          	li	t6,1
    7174:	fff966e3          	bltu	s2,t6,7160 <Hacl_P256_ecdsa_sign_p256_without_hash+0x1258>
    7178:	000b0613          	mv	a2,s6
    717c:	000a8593          	mv	a1,s5
    7180:	000c0513          	mv	a0,s8
    7184:	c7dfe0ef          	jal	5e00 <qmul>
    7188:	000c0613          	mv	a2,s8
    718c:	000a8593          	mv	a1,s5
    7190:	000a0513          	mv	a0,s4
    7194:	c6dfe0ef          	jal	5e00 <qmul>
    7198:	000a0613          	mv	a2,s4
    719c:	000a8593          	mv	a1,s5
    71a0:	000c8513          	mv	a0,s9
    71a4:	c5dfe0ef          	jal	5e00 <qmul>
    71a8:	02000613          	li	a2,32
    71ac:	000a0593          	mv	a1,s4
    71b0:	000a8513          	mv	a0,s5
    71b4:	9b4f90ef          	jal	368 <memcpy>
    71b8:	00000913          	li	s2,0
    71bc:	000a8593          	mv	a1,s5
    71c0:	000a8513          	mv	a0,s5
    71c4:	cc1fe0ef          	jal	5e84 <qsqr>
    71c8:	00190913          	add	s2,s2,1
    71cc:	00100f93          	li	t6,1
    71d0:	fff966e3          	bltu	s2,t6,71bc <Hacl_P256_ecdsa_sign_p256_without_hash+0x12b4>
    71d4:	000a8613          	mv	a2,s5
    71d8:	000a0593          	mv	a1,s4
    71dc:	000b8513          	mv	a0,s7
    71e0:	c21fe0ef          	jal	5e00 <qmul>
    71e4:	00000913          	li	s2,0
    71e8:	000a8593          	mv	a1,s5
    71ec:	000a8513          	mv	a0,s5
    71f0:	c95fe0ef          	jal	5e84 <qsqr>
    71f4:	00190913          	add	s2,s2,1
    71f8:	00100f93          	li	t6,1
    71fc:	fff966e3          	bltu	s2,t6,71e8 <Hacl_P256_ecdsa_sign_p256_without_hash+0x12e0>
    7200:	000b0613          	mv	a2,s6
    7204:	000a8593          	mv	a1,s5
    7208:	000d8513          	mv	a0,s11
    720c:	bf5fe0ef          	jal	5e00 <qmul>
    7210:	02000613          	li	a2,32
    7214:	000d8593          	mv	a1,s11
    7218:	000a8513          	mv	a0,s5
    721c:	94cf90ef          	jal	368 <memcpy>
    7220:	00000913          	li	s2,0
    7224:	000a8593          	mv	a1,s5
    7228:	000a8513          	mv	a0,s5
    722c:	c59fe0ef          	jal	5e84 <qsqr>
    7230:	00190913          	add	s2,s2,1
    7234:	00100f93          	li	t6,1
    7238:	fff966e3          	bltu	s2,t6,7224 <Hacl_P256_ecdsa_sign_p256_without_hash+0x131c>
    723c:	000a8613          	mv	a2,s5
    7240:	000a0593          	mv	a1,s4
    7244:	00098513          	mv	a0,s3
    7248:	bb9fe0ef          	jal	5e00 <qmul>
    724c:	000a8613          	mv	a2,s5
    7250:	000d8593          	mv	a1,s11
    7254:	000a8513          	mv	a0,s5
    7258:	ba9fe0ef          	jal	5e00 <qmul>
    725c:	00000713          	li	a4,0
    7260:	00000693          	li	a3,0
    7264:	1ed12823          	sw	a3,496(sp)
    7268:	1ee12a23          	sw	a4,500(sp)
    726c:	1ed12c23          	sw	a3,504(sp)
    7270:	1ee12e23          	sw	a4,508(sp)
    7274:	20d12023          	sw	a3,512(sp)
    7278:	20e12223          	sw	a4,516(sp)
    727c:	20d12423          	sw	a3,520(sp)
    7280:	20e12623          	sw	a4,524(sp)
    7284:	00000913          	li	s2,0
    7288:	000a8593          	mv	a1,s5
    728c:	000a8513          	mv	a0,s5
    7290:	bf5fe0ef          	jal	5e84 <qsqr>
    7294:	00190913          	add	s2,s2,1
    7298:	00200f93          	li	t6,2
    729c:	fff966e3          	bltu	s2,t6,7288 <Hacl_P256_ecdsa_sign_p256_without_hash+0x1380>
    72a0:	000c0613          	mv	a2,s8
    72a4:	000a8593          	mv	a1,s5
    72a8:	000a8513          	mv	a0,s5
    72ac:	b55fe0ef          	jal	5e00 <qmul>
    72b0:	1f010513          	add	a0,sp,496
    72b4:	02000613          	li	a2,32
    72b8:	000a8593          	mv	a1,s5
    72bc:	8acf90ef          	jal	368 <memcpy>
    72c0:	00000913          	li	s2,0
    72c4:	1f010513          	add	a0,sp,496
    72c8:	1f010593          	add	a1,sp,496
    72cc:	bb9fe0ef          	jal	5e84 <qsqr>
    72d0:	00190913          	add	s2,s2,1
    72d4:	00800f93          	li	t6,8
    72d8:	fff966e3          	bltu	s2,t6,72c4 <Hacl_P256_ecdsa_sign_p256_without_hash+0x13bc>
    72dc:	1f010513          	add	a0,sp,496
    72e0:	1f010593          	add	a1,sp,496
    72e4:	000a8613          	mv	a2,s5
    72e8:	b19fe0ef          	jal	5e00 <qmul>
    72ec:	1f010593          	add	a1,sp,496
    72f0:	02000613          	li	a2,32
    72f4:	000a8513          	mv	a0,s5
    72f8:	870f90ef          	jal	368 <memcpy>
    72fc:	00000913          	li	s2,0
    7300:	000a8593          	mv	a1,s5
    7304:	000a8513          	mv	a0,s5
    7308:	b7dfe0ef          	jal	5e84 <qsqr>
    730c:	00190913          	add	s2,s2,1
    7310:	01000f93          	li	t6,16
    7314:	fff966e3          	bltu	s2,t6,7300 <Hacl_P256_ecdsa_sign_p256_without_hash+0x13f8>
    7318:	1f010613          	add	a2,sp,496
    731c:	000a8593          	mv	a1,s5
    7320:	000a8513          	mv	a0,s5
    7324:	addfe0ef          	jal	5e00 <qmul>
    7328:	1f010513          	add	a0,sp,496
    732c:	02000613          	li	a2,32
    7330:	000a8593          	mv	a1,s5
    7334:	834f90ef          	jal	368 <memcpy>
    7338:	00000913          	li	s2,0
    733c:	1f010513          	add	a0,sp,496
    7340:	1f010593          	add	a1,sp,496
    7344:	b41fe0ef          	jal	5e84 <qsqr>
    7348:	00190913          	add	s2,s2,1
    734c:	04000f93          	li	t6,64
    7350:	fff966e3          	bltu	s2,t6,733c <Hacl_P256_ecdsa_sign_p256_without_hash+0x1434>
    7354:	1f010513          	add	a0,sp,496
    7358:	1f010593          	add	a1,sp,496
    735c:	000a8613          	mv	a2,s5
    7360:	aa1fe0ef          	jal	5e00 <qmul>
    7364:	00000913          	li	s2,0
    7368:	1f010513          	add	a0,sp,496
    736c:	1f010593          	add	a1,sp,496
    7370:	b15fe0ef          	jal	5e84 <qsqr>
    7374:	00190913          	add	s2,s2,1
    7378:	02000f93          	li	t6,32
    737c:	fff966e3          	bltu	s2,t6,7368 <Hacl_P256_ecdsa_sign_p256_without_hash+0x1460>
    7380:	1f010513          	add	a0,sp,496
    7384:	1f010593          	add	a1,sp,496
    7388:	000a8613          	mv	a2,s5
    738c:	a75fe0ef          	jal	5e00 <qmul>
    7390:	00000913          	li	s2,0
    7394:	1f010513          	add	a0,sp,496
    7398:	1f010593          	add	a1,sp,496
    739c:	ae9fe0ef          	jal	5e84 <qsqr>
    73a0:	00190913          	add	s2,s2,1
    73a4:	00600f93          	li	t6,6
    73a8:	fff966e3          	bltu	s2,t6,7394 <Hacl_P256_ecdsa_sign_p256_without_hash+0x148c>
    73ac:	1f010513          	add	a0,sp,496
    73b0:	1f010593          	add	a1,sp,496
    73b4:	00098613          	mv	a2,s3
    73b8:	a49fe0ef          	jal	5e00 <qmul>
    73bc:	00000913          	li	s2,0
    73c0:	1f010513          	add	a0,sp,496
    73c4:	1f010593          	add	a1,sp,496
    73c8:	abdfe0ef          	jal	5e84 <qsqr>
    73cc:	00190913          	add	s2,s2,1
    73d0:	00500f93          	li	t6,5
    73d4:	fff966e3          	bltu	s2,t6,73c0 <Hacl_P256_ecdsa_sign_p256_without_hash+0x14b8>
    73d8:	1f010513          	add	a0,sp,496
    73dc:	1f010593          	add	a1,sp,496
    73e0:	000c8613          	mv	a2,s9
    73e4:	a1dfe0ef          	jal	5e00 <qmul>
    73e8:	00000913          	li	s2,0
    73ec:	1f010513          	add	a0,sp,496
    73f0:	1f010593          	add	a1,sp,496
    73f4:	a91fe0ef          	jal	5e84 <qsqr>
    73f8:	00190913          	add	s2,s2,1
    73fc:	00400f93          	li	t6,4
    7400:	fff966e3          	bltu	s2,t6,73ec <Hacl_P256_ecdsa_sign_p256_without_hash+0x14e4>
    7404:	1f010513          	add	a0,sp,496
    7408:	1f010593          	add	a1,sp,496
    740c:	000c0613          	mv	a2,s8
    7410:	9f1fe0ef          	jal	5e00 <qmul>
    7414:	00000913          	li	s2,0
    7418:	1f010513          	add	a0,sp,496
    741c:	1f010593          	add	a1,sp,496
    7420:	a65fe0ef          	jal	5e84 <qsqr>
    7424:	00190913          	add	s2,s2,1
    7428:	00500f93          	li	t6,5
    742c:	fff966e3          	bltu	s2,t6,7418 <Hacl_P256_ecdsa_sign_p256_without_hash+0x1510>
    7430:	1f010513          	add	a0,sp,496
    7434:	1f010593          	add	a1,sp,496
    7438:	000b8613          	mv	a2,s7
    743c:	9c5fe0ef          	jal	5e00 <qmul>
    7440:	00000913          	li	s2,0
    7444:	1f010513          	add	a0,sp,496
    7448:	1f010593          	add	a1,sp,496
    744c:	a39fe0ef          	jal	5e84 <qsqr>
    7450:	00190913          	add	s2,s2,1
    7454:	00500f93          	li	t6,5
    7458:	fff966e3          	bltu	s2,t6,7444 <Hacl_P256_ecdsa_sign_p256_without_hash+0x153c>
    745c:	1f010513          	add	a0,sp,496
    7460:	1f010593          	add	a1,sp,496
    7464:	000d8613          	mv	a2,s11
    7468:	999fe0ef          	jal	5e00 <qmul>
    746c:	00000913          	li	s2,0
    7470:	1f010513          	add	a0,sp,496
    7474:	1f010593          	add	a1,sp,496
    7478:	a0dfe0ef          	jal	5e84 <qsqr>
    747c:	00190913          	add	s2,s2,1
    7480:	00400f93          	li	t6,4
    7484:	fff966e3          	bltu	s2,t6,7470 <Hacl_P256_ecdsa_sign_p256_without_hash+0x1568>
    7488:	1f010513          	add	a0,sp,496
    748c:	1f010593          	add	a1,sp,496
    7490:	000a0613          	mv	a2,s4
    7494:	96dfe0ef          	jal	5e00 <qmul>
    7498:	00000913          	li	s2,0
    749c:	1f010513          	add	a0,sp,496
    74a0:	1f010593          	add	a1,sp,496
    74a4:	9e1fe0ef          	jal	5e84 <qsqr>
    74a8:	00190913          	add	s2,s2,1
    74ac:	00300f93          	li	t6,3
    74b0:	fff966e3          	bltu	s2,t6,749c <Hacl_P256_ecdsa_sign_p256_without_hash+0x1594>
    74b4:	1f010513          	add	a0,sp,496
    74b8:	1f010593          	add	a1,sp,496
    74bc:	000a0613          	mv	a2,s4
    74c0:	941fe0ef          	jal	5e00 <qmul>
    74c4:	00000913          	li	s2,0
    74c8:	1f010513          	add	a0,sp,496
    74cc:	1f010593          	add	a1,sp,496
    74d0:	9b5fe0ef          	jal	5e84 <qsqr>
    74d4:	00190913          	add	s2,s2,1
    74d8:	00300f93          	li	t6,3
    74dc:	fff966e3          	bltu	s2,t6,74c8 <Hacl_P256_ecdsa_sign_p256_without_hash+0x15c0>
    74e0:	1f010513          	add	a0,sp,496
    74e4:	1f010593          	add	a1,sp,496
    74e8:	000a0613          	mv	a2,s4
    74ec:	915fe0ef          	jal	5e00 <qmul>
    74f0:	00000913          	li	s2,0
    74f4:	1f010513          	add	a0,sp,496
    74f8:	1f010593          	add	a1,sp,496
    74fc:	989fe0ef          	jal	5e84 <qsqr>
    7500:	00190913          	add	s2,s2,1
    7504:	00500f93          	li	t6,5
    7508:	fff966e3          	bltu	s2,t6,74f4 <Hacl_P256_ecdsa_sign_p256_without_hash+0x15ec>
    750c:	1f010513          	add	a0,sp,496
    7510:	1f010593          	add	a1,sp,496
    7514:	000c8613          	mv	a2,s9
    7518:	8e9fe0ef          	jal	5e00 <qmul>
    751c:	00000913          	li	s2,0
    7520:	1f010513          	add	a0,sp,496
    7524:	1f010593          	add	a1,sp,496
    7528:	95dfe0ef          	jal	5e84 <qsqr>
    752c:	00190913          	add	s2,s2,1
    7530:	00900f93          	li	t6,9
    7534:	fff966e3          	bltu	s2,t6,7520 <Hacl_P256_ecdsa_sign_p256_without_hash+0x1618>
    7538:	1f010513          	add	a0,sp,496
    753c:	1f010593          	add	a1,sp,496
    7540:	00098613          	mv	a2,s3
    7544:	8bdfe0ef          	jal	5e00 <qmul>
    7548:	00000913          	li	s2,0
    754c:	1f010513          	add	a0,sp,496
    7550:	1f010593          	add	a1,sp,496
    7554:	931fe0ef          	jal	5e84 <qsqr>
    7558:	00190913          	add	s2,s2,1
    755c:	00600f93          	li	t6,6
    7560:	fff966e3          	bltu	s2,t6,754c <Hacl_P256_ecdsa_sign_p256_without_hash+0x1644>
    7564:	1f010513          	add	a0,sp,496
    7568:	1f010593          	add	a1,sp,496
    756c:	000b8613          	mv	a2,s7
    7570:	891fe0ef          	jal	5e00 <qmul>
    7574:	00000913          	li	s2,0
    7578:	1f010513          	add	a0,sp,496
    757c:	1f010593          	add	a1,sp,496
    7580:	905fe0ef          	jal	5e84 <qsqr>
    7584:	00190913          	add	s2,s2,1
    7588:	00200f93          	li	t6,2
    758c:	fff966e3          	bltu	s2,t6,7578 <Hacl_P256_ecdsa_sign_p256_without_hash+0x1670>
    7590:	1f010513          	add	a0,sp,496
    7594:	1f010593          	add	a1,sp,496
    7598:	000b0613          	mv	a2,s6
    759c:	865fe0ef          	jal	5e00 <qmul>
    75a0:	00000913          	li	s2,0
    75a4:	1f010513          	add	a0,sp,496
    75a8:	1f010593          	add	a1,sp,496
    75ac:	8d9fe0ef          	jal	5e84 <qsqr>
    75b0:	00190913          	add	s2,s2,1
    75b4:	00500f93          	li	t6,5
    75b8:	fff966e3          	bltu	s2,t6,75a4 <Hacl_P256_ecdsa_sign_p256_without_hash+0x169c>
    75bc:	1f010513          	add	a0,sp,496
    75c0:	1f010593          	add	a1,sp,496
    75c4:	000b0613          	mv	a2,s6
    75c8:	839fe0ef          	jal	5e00 <qmul>
    75cc:	00000913          	li	s2,0
    75d0:	1f010513          	add	a0,sp,496
    75d4:	1f010593          	add	a1,sp,496
    75d8:	8adfe0ef          	jal	5e84 <qsqr>
    75dc:	00190913          	add	s2,s2,1
    75e0:	00600f93          	li	t6,6
    75e4:	fff966e3          	bltu	s2,t6,75d0 <Hacl_P256_ecdsa_sign_p256_without_hash+0x16c8>
    75e8:	1f010513          	add	a0,sp,496
    75ec:	1f010593          	add	a1,sp,496
    75f0:	000b8613          	mv	a2,s7
    75f4:	80dfe0ef          	jal	5e00 <qmul>
    75f8:	00000913          	li	s2,0
    75fc:	1f010513          	add	a0,sp,496
    7600:	1f010593          	add	a1,sp,496
    7604:	881fe0ef          	jal	5e84 <qsqr>
    7608:	00190913          	add	s2,s2,1
    760c:	00500f93          	li	t6,5
    7610:	fff966e3          	bltu	s2,t6,75fc <Hacl_P256_ecdsa_sign_p256_without_hash+0x16f4>
    7614:	1f010513          	add	a0,sp,496
    7618:	1f010593          	add	a1,sp,496
    761c:	000c8613          	mv	a2,s9
    7620:	fe0fe0ef          	jal	5e00 <qmul>
    7624:	00000913          	li	s2,0
    7628:	1f010513          	add	a0,sp,496
    762c:	1f010593          	add	a1,sp,496
    7630:	855fe0ef          	jal	5e84 <qsqr>
    7634:	00190913          	add	s2,s2,1
    7638:	00400f93          	li	t6,4
    763c:	fff966e3          	bltu	s2,t6,7628 <Hacl_P256_ecdsa_sign_p256_without_hash+0x1720>
    7640:	1f010513          	add	a0,sp,496
    7644:	1f010593          	add	a1,sp,496
    7648:	000c8613          	mv	a2,s9
    764c:	fb4fe0ef          	jal	5e00 <qmul>
    7650:	00000913          	li	s2,0
    7654:	1f010513          	add	a0,sp,496
    7658:	1f010593          	add	a1,sp,496
    765c:	829fe0ef          	jal	5e84 <qsqr>
    7660:	00190913          	add	s2,s2,1
    7664:	00500f93          	li	t6,5
    7668:	fff966e3          	bltu	s2,t6,7654 <Hacl_P256_ecdsa_sign_p256_without_hash+0x174c>
    766c:	1f010513          	add	a0,sp,496
    7670:	1f010593          	add	a1,sp,496
    7674:	000c8613          	mv	a2,s9
    7678:	f88fe0ef          	jal	5e00 <qmul>
    767c:	00000913          	li	s2,0
    7680:	1f010513          	add	a0,sp,496
    7684:	1f010593          	add	a1,sp,496
    7688:	ffcfe0ef          	jal	5e84 <qsqr>
    768c:	00190913          	add	s2,s2,1
    7690:	00500f93          	li	t6,5
    7694:	fff966e3          	bltu	s2,t6,7680 <Hacl_P256_ecdsa_sign_p256_without_hash+0x1778>
    7698:	1f010513          	add	a0,sp,496
    769c:	1f010593          	add	a1,sp,496
    76a0:	000a0613          	mv	a2,s4
    76a4:	f5cfe0ef          	jal	5e00 <qmul>
    76a8:	00000913          	li	s2,0
    76ac:	1f010513          	add	a0,sp,496
    76b0:	1f010593          	add	a1,sp,496
    76b4:	fd0fe0ef          	jal	5e84 <qsqr>
    76b8:	00190913          	add	s2,s2,1
    76bc:	00300f93          	li	t6,3
    76c0:	fff966e3          	bltu	s2,t6,76ac <Hacl_P256_ecdsa_sign_p256_without_hash+0x17a4>
    76c4:	1f010513          	add	a0,sp,496
    76c8:	1f010593          	add	a1,sp,496
    76cc:	000c0613          	mv	a2,s8
    76d0:	f30fe0ef          	jal	5e00 <qmul>
    76d4:	00000913          	li	s2,0
    76d8:	1f010513          	add	a0,sp,496
    76dc:	1f010593          	add	a1,sp,496
    76e0:	fa4fe0ef          	jal	5e84 <qsqr>
    76e4:	00190913          	add	s2,s2,1
    76e8:	00a00f93          	li	t6,10
    76ec:	fff966e3          	bltu	s2,t6,76d8 <Hacl_P256_ecdsa_sign_p256_without_hash+0x17d0>
    76f0:	1f010513          	add	a0,sp,496
    76f4:	1f010593          	add	a1,sp,496
    76f8:	00098613          	mv	a2,s3
    76fc:	f04fe0ef          	jal	5e00 <qmul>
    7700:	00000913          	li	s2,0
    7704:	1f010513          	add	a0,sp,496
    7708:	1f010593          	add	a1,sp,496
    770c:	f78fe0ef          	jal	5e84 <qsqr>
    7710:	00190913          	add	s2,s2,1
    7714:	00200f93          	li	t6,2
    7718:	fff966e3          	bltu	s2,t6,7704 <Hacl_P256_ecdsa_sign_p256_without_hash+0x17fc>
    771c:	1f010513          	add	a0,sp,496
    7720:	1f010593          	add	a1,sp,496
    7724:	000c0613          	mv	a2,s8
    7728:	ed8fe0ef          	jal	5e00 <qmul>
    772c:	00000913          	li	s2,0
    7730:	1f010513          	add	a0,sp,496
    7734:	1f010593          	add	a1,sp,496
    7738:	f4cfe0ef          	jal	5e84 <qsqr>
    773c:	00190913          	add	s2,s2,1
    7740:	00500f93          	li	t6,5
    7744:	fff966e3          	bltu	s2,t6,7730 <Hacl_P256_ecdsa_sign_p256_without_hash+0x1828>
    7748:	1f010513          	add	a0,sp,496
    774c:	1f010593          	add	a1,sp,496
    7750:	000c0613          	mv	a2,s8
    7754:	eacfe0ef          	jal	5e00 <qmul>
    7758:	00000913          	li	s2,0
    775c:	1f010513          	add	a0,sp,496
    7760:	1f010593          	add	a1,sp,496
    7764:	f20fe0ef          	jal	5e84 <qsqr>
    7768:	00190913          	add	s2,s2,1
    776c:	00500f93          	li	t6,5
    7770:	fff966e3          	bltu	s2,t6,775c <Hacl_P256_ecdsa_sign_p256_without_hash+0x1854>
    7774:	1f010513          	add	a0,sp,496
    7778:	1f010593          	add	a1,sp,496
    777c:	000c0613          	mv	a2,s8
    7780:	e80fe0ef          	jal	5e00 <qmul>
    7784:	00000913          	li	s2,0
    7788:	1f010513          	add	a0,sp,496
    778c:	1f010593          	add	a1,sp,496
    7790:	ef4fe0ef          	jal	5e84 <qsqr>
    7794:	00190913          	add	s2,s2,1
    7798:	00300f93          	li	t6,3
    779c:	fff966e3          	bltu	s2,t6,7788 <Hacl_P256_ecdsa_sign_p256_without_hash+0x1880>
    77a0:	1f010513          	add	a0,sp,496
    77a4:	1f010593          	add	a1,sp,496
    77a8:	000b0613          	mv	a2,s6
    77ac:	e54fe0ef          	jal	5e00 <qmul>
    77b0:	00000913          	li	s2,0
    77b4:	1f010513          	add	a0,sp,496
    77b8:	1f010593          	add	a1,sp,496
    77bc:	ec8fe0ef          	jal	5e84 <qsqr>
    77c0:	00190913          	add	s2,s2,1
    77c4:	00700f93          	li	t6,7
    77c8:	fff966e3          	bltu	s2,t6,77b4 <Hacl_P256_ecdsa_sign_p256_without_hash+0x18ac>
    77cc:	1f010513          	add	a0,sp,496
    77d0:	1f010593          	add	a1,sp,496
    77d4:	000d8613          	mv	a2,s11
    77d8:	e28fe0ef          	jal	5e00 <qmul>
    77dc:	00000913          	li	s2,0
    77e0:	1f010513          	add	a0,sp,496
    77e4:	1f010593          	add	a1,sp,496
    77e8:	e9cfe0ef          	jal	5e84 <qsqr>
    77ec:	00190913          	add	s2,s2,1
    77f0:	00600f93          	li	t6,6
    77f4:	fff966e3          	bltu	s2,t6,77e0 <Hacl_P256_ecdsa_sign_p256_without_hash+0x18d8>
    77f8:	1f010513          	add	a0,sp,496
    77fc:	1f010593          	add	a1,sp,496
    7800:	000b8613          	mv	a2,s7
    7804:	dfcfe0ef          	jal	5e00 <qmul>
    7808:	1f010593          	add	a1,sp,496
    780c:	02000613          	li	a2,32
    7810:	000a8513          	mv	a0,s5
    7814:	b55f80ef          	jal	368 <memcpy>
    7818:	02000613          	li	a2,32
    781c:	000a8593          	mv	a1,s5
    7820:	000d0513          	mv	a0,s10
    7824:	b45f80ef          	jal	368 <memcpy>
    7828:	00048613          	mv	a2,s1
    782c:	06412583          	lw	a1,100(sp)
    7830:	06012503          	lw	a0,96(sp)
    7834:	dccfe0ef          	jal	5e00 <qmul>
    7838:	07010593          	add	a1,sp,112
    783c:	07010493          	add	s1,sp,112
    7840:	00000693          	li	a3,0
    7844:	00000613          	li	a2,0
    7848:	1ec12823          	sw	a2,496(sp)
    784c:	1ed12a23          	sw	a3,500(sp)
    7850:	1ec12c23          	sw	a2,504(sp)
    7854:	1ed12e23          	sw	a3,508(sp)
    7858:	20c12023          	sw	a2,512(sp)
    785c:	20d12223          	sw	a3,516(sp)
    7860:	20c12423          	sw	a2,520(sp)
    7864:	20d12623          	sw	a3,524(sp)
    7868:	20c12823          	sw	a2,528(sp)
    786c:	20d12a23          	sw	a3,532(sp)
    7870:	20c12c23          	sw	a2,536(sp)
    7874:	20d12e23          	sw	a3,540(sp)
    7878:	22c12023          	sw	a2,544(sp)
    787c:	22d12223          	sw	a3,548(sp)
    7880:	22c12423          	sw	a2,552(sp)
    7884:	22d12623          	sw	a3,556(sp)
    7888:	1f010513          	add	a0,sp,496
    788c:	02000613          	li	a2,32
    7890:	ad9f80ef          	jal	368 <memcpy>
    7894:	1f010593          	add	a1,sp,496
    7898:	00048513          	mv	a0,s1
    789c:	f89fd0ef          	jal	5824 <qmont_reduction>
    78a0:	19010493          	add	s1,sp,400
    78a4:	07010913          	add	s2,sp,112
    78a8:	19010993          	add	s3,sp,400
    78ac:	00000593          	li	a1,0
    78b0:	00000513          	li	a0,0
    78b4:	1ea12823          	sw	a0,496(sp)
    78b8:	1eb12a23          	sw	a1,500(sp)
    78bc:	1ea12c23          	sw	a0,504(sp)
    78c0:	1eb12e23          	sw	a1,508(sp)
    78c4:	20a12023          	sw	a0,512(sp)
    78c8:	20b12223          	sw	a1,516(sp)
    78cc:	20a12423          	sw	a0,520(sp)
    78d0:	20b12623          	sw	a1,524(sp)
    78d4:	1f010513          	add	a0,sp,496
    78d8:	8b1fc0ef          	jal	4188 <make_order>
    78dc:	1f010593          	add	a1,sp,496
    78e0:	00048693          	mv	a3,s1
    78e4:	00090613          	mv	a2,s2
    78e8:	00098513          	mv	a0,s3
    78ec:	a2cfb0ef          	jal	2b18 <bn_add_mod4>
    78f0:	0b010593          	add	a1,sp,176
    78f4:	06012603          	lw	a2,96(sp)
    78f8:	06012503          	lw	a0,96(sp)
    78fc:	d04fe0ef          	jal	5e00 <qmul>
    7900:	19010913          	add	s2,sp,400
    7904:	17010593          	add	a1,sp,368
    7908:	06812483          	lw	s1,104(sp)
    790c:	00048513          	mv	a0,s1
    7910:	d38fc0ef          	jal	3e48 <bn_to_bytes_be4>
    7914:	02048513          	add	a0,s1,32
    7918:	00090593          	mv	a1,s2
    791c:	d2cfc0ef          	jal	3e48 <bn_to_bytes_be4>
    7920:	06412503          	lw	a0,100(sp)
    7924:	940fb0ef          	jal	2a64 <bn_is_zero_mask4>
    7928:	00050493          	mv	s1,a0
    792c:	06012503          	lw	a0,96(sp)
    7930:	934fb0ef          	jal	2a64 <bn_is_zero_mask4>
    7934:	fff4c793          	not	a5,s1
    7938:	fff54813          	not	a6,a0
    793c:	0107f733          	and	a4,a5,a6
    7940:	00e47533          	and	a0,s0,a4
    7944:	00812403          	lw	s0,8(sp)
    7948:	00c12483          	lw	s1,12(sp)
    794c:	01012903          	lw	s2,16(sp)
    7950:	01412983          	lw	s3,20(sp)
    7954:	01812a03          	lw	s4,24(sp)
    7958:	01c12a83          	lw	s5,28(sp)
    795c:	02012b03          	lw	s6,32(sp)
    7960:	02412b83          	lw	s7,36(sp)
    7964:	02812c03          	lw	s8,40(sp)
    7968:	02c12c83          	lw	s9,44(sp)
    796c:	03012d03          	lw	s10,48(sp)
    7970:	03412d83          	lw	s11,52(sp)
    7974:	00412083          	lw	ra,4(sp)
    7978:	47010113          	add	sp,sp,1136
    797c:	00008067          	ret

00007980 <Hacl_HMAC_compute_sha2_256>:
    7980:	00010f13          	mv	t5,sp
    7984:	ea010113          	add	sp,sp,-352
    7988:	01e12023          	sw	t5,0(sp)
    798c:	00112223          	sw	ra,4(sp)
    7990:	00812423          	sw	s0,8(sp)
    7994:	00912623          	sw	s1,12(sp)
    7998:	01212823          	sw	s2,16(sp)
    799c:	01312a23          	sw	s3,20(sp)
    79a0:	01412c23          	sw	s4,24(sp)
    79a4:	01512e23          	sw	s5,28(sp)
    79a8:	03612023          	sw	s6,32(sp)
    79ac:	03712223          	sw	s7,36(sp)
    79b0:	03812423          	sw	s8,40(sp)
    79b4:	00070913          	mv	s2,a4
    79b8:	00068993          	mv	s3,a3
    79bc:	00060a13          	mv	s4,a2
    79c0:	00058b13          	mv	s6,a1
    79c4:	00050493          	mv	s1,a0
    79c8:	04000413          	li	s0,64
    79cc:	08010513          	add	a0,sp,128
    79d0:	00000593          	li	a1,0
    79d4:	00040613          	mv	a2,s0
    79d8:	acdf80ef          	jal	4a4 <memset>
    79dc:	08010513          	add	a0,sp,128
    79e0:	04000f93          	li	t6,64
    79e4:	094ffc63          	bgeu	t6,s4,7a7c <Hacl_HMAC_compute_sha2_256+0xfc>
    79e8:	08010b93          	add	s7,sp,128
    79ec:	00000693          	li	a3,0
    79f0:	14d12023          	sw	a3,320(sp)
    79f4:	00000293          	li	t0,0
    79f8:	14512223          	sw	t0,324(sp)
    79fc:	00000793          	li	a5,0
    7a00:	14f12423          	sw	a5,328(sp)
    7a04:	00000513          	li	a0,0
    7a08:	14a12623          	sw	a0,332(sp)
    7a0c:	00000e13          	li	t3,0
    7a10:	15c12823          	sw	t3,336(sp)
    7a14:	00000813          	li	a6,0
    7a18:	15012a23          	sw	a6,340(sp)
    7a1c:	00000693          	li	a3,0
    7a20:	14d12c23          	sw	a3,344(sp)
    7a24:	00000513          	li	a0,0
    7a28:	14a12e23          	sw	a0,348(sp)
    7a2c:	14010513          	add	a0,sp,320
    7a30:	aa8f90ef          	jal	cd8 <sha256_init>
    7a34:	03fa7c13          	and	s8,s4,63
    7a38:	00000a93          	li	s5,0
    7a3c:	14010613          	add	a2,sp,320
    7a40:	000b0593          	mv	a1,s6
    7a44:	000a0513          	mv	a0,s4
    7a48:	b09f90ef          	jal	1550 <sha256_update_nblocks>
    7a4c:	03fa7e93          	and	t4,s4,63
    7a50:	014b07b3          	add	a5,s6,s4
    7a54:	41d786b3          	sub	a3,a5,t4
    7a58:	14010713          	add	a4,sp,320
    7a5c:	000c0613          	mv	a2,s8
    7a60:	000a8593          	mv	a1,s5
    7a64:	000a0513          	mv	a0,s4
    7a68:	b51f90ef          	jal	15b8 <sha256_update_last>
    7a6c:	14010513          	add	a0,sp,320
    7a70:	000b8593          	mv	a1,s7
    7a74:	8e4fa0ef          	jal	1b58 <sha256_finish>
    7a78:	0100006f          	j	7a88 <Hacl_HMAC_compute_sha2_256+0x108>
    7a7c:	000a0613          	mv	a2,s4
    7a80:	000b0593          	mv	a1,s6
    7a84:	8e5f80ef          	jal	368 <memcpy>
    7a88:	0c010513          	add	a0,sp,192
    7a8c:	03600593          	li	a1,54
    7a90:	00040613          	mv	a2,s0
    7a94:	a11f80ef          	jal	4a4 <memset>
    7a98:	00000313          	li	t1,0
    7a9c:	0c010613          	add	a2,sp,192
    7aa0:	00660eb3          	add	t4,a2,t1
    7aa4:	000ec283          	lbu	t0,0(t4)
    7aa8:	08010613          	add	a2,sp,128
    7aac:	00660733          	add	a4,a2,t1
    7ab0:	00074383          	lbu	t2,0(a4)
    7ab4:	0072cf33          	xor	t5,t0,t2
    7ab8:	01ee8023          	sb	t5,0(t4)
    7abc:	00130313          	add	t1,t1,1
    7ac0:	04000f93          	li	t6,64
    7ac4:	fdf36ce3          	bltu	t1,t6,7a9c <Hacl_HMAC_compute_sha2_256+0x11c>
    7ac8:	10010513          	add	a0,sp,256
    7acc:	05c00593          	li	a1,92
    7ad0:	00040613          	mv	a2,s0
    7ad4:	9d1f80ef          	jal	4a4 <memset>
    7ad8:	00000293          	li	t0,0
    7adc:	10010393          	add	t2,sp,256
    7ae0:	005383b3          	add	t2,t2,t0
    7ae4:	0003c783          	lbu	a5,0(t2)
    7ae8:	08010693          	add	a3,sp,128
    7aec:	00568633          	add	a2,a3,t0
    7af0:	00064603          	lbu	a2,0(a2)
    7af4:	00c7c8b3          	xor	a7,a5,a2
    7af8:	01138023          	sb	a7,0(t2)
    7afc:	00128293          	add	t0,t0,1
    7b00:	04000f93          	li	t6,64
    7b04:	fdf2ece3          	bltu	t0,t6,7adc <Hacl_HMAC_compute_sha2_256+0x15c>
    7b08:	00000e93          	li	t4,0
    7b0c:	07d12023          	sw	t4,96(sp)
    7b10:	00000693          	li	a3,0
    7b14:	06d12223          	sw	a3,100(sp)
    7b18:	00000e93          	li	t4,0
    7b1c:	07d12423          	sw	t4,104(sp)
    7b20:	00000393          	li	t2,0
    7b24:	06712623          	sw	t2,108(sp)
    7b28:	00000f13          	li	t5,0
    7b2c:	07e12823          	sw	t5,112(sp)
    7b30:	00000713          	li	a4,0
    7b34:	06e12a23          	sw	a4,116(sp)
    7b38:	00000e13          	li	t3,0
    7b3c:	07c12c23          	sw	t3,120(sp)
    7b40:	00000313          	li	t1,0
    7b44:	06612e23          	sw	t1,124(sp)
    7b48:	00000613          	li	a2,0
    7b4c:	06010893          	add	a7,sp,96
    7b50:	00008537          	lui	a0,0x8
    7b54:	d6050513          	add	a0,a0,-672 # 7d60 <_etext>
    7b58:	00261593          	sll	a1,a2,0x2
    7b5c:	00b50733          	add	a4,a0,a1
    7b60:	00072283          	lw	t0,0(a4)
    7b64:	00b88733          	add	a4,a7,a1
    7b68:	00572023          	sw	t0,0(a4)
    7b6c:	00160613          	add	a2,a2,1
    7b70:	00800f93          	li	t6,8
    7b74:	fdf66ce3          	bltu	a2,t6,7b4c <Hacl_HMAC_compute_sha2_256+0x1cc>
    7b78:	06010413          	add	s0,sp,96
    7b7c:	0c010a13          	add	s4,sp,192
    7b80:	0c090e63          	beqz	s2,7c5c <Hacl_HMAC_compute_sha2_256+0x2dc>
    7b84:	00695593          	srl	a1,s2,0x6
    7b88:	03f97793          	and	a5,s2,63
    7b8c:	02b07c63          	bgeu	zero,a1,7bc4 <Hacl_HMAC_compute_sha2_256+0x244>
    7b90:	02079a63          	bnez	a5,7bc4 <Hacl_HMAC_compute_sha2_256+0x244>
    7b94:	fff58893          	add	a7,a1,-1
    7b98:	05112423          	sw	a7,72(sp)
    7b9c:	00689793          	sll	a5,a7,0x6
    7ba0:	40f90533          	sub	a0,s2,a5
    7ba4:	04a12623          	sw	a0,76(sp)
    7ba8:	00000013          	nop
    7bac:	04812f83          	lw	t6,72(sp)
    7bb0:	05f12023          	sw	t6,64(sp)
    7bb4:	04c12f83          	lw	t6,76(sp)
    7bb8:	05f12223          	sw	t6,68(sp)
    7bbc:	00000013          	nop
    7bc0:	0240006f          	j	7be4 <Hacl_HMAC_compute_sha2_256+0x264>
    7bc4:	04b12823          	sw	a1,80(sp)
    7bc8:	04f12a23          	sw	a5,84(sp)
    7bcc:	00000013          	nop
    7bd0:	05012f83          	lw	t6,80(sp)
    7bd4:	05f12023          	sw	t6,64(sp)
    7bd8:	05412f83          	lw	t6,84(sp)
    7bdc:	05f12223          	sw	t6,68(sp)
    7be0:	00000013          	nop
    7be4:	04012b83          	lw	s7,64(sp)
    7be8:	04412b03          	lw	s6,68(sp)
    7bec:	006b9913          	sll	s2,s7,0x6
    7bf0:	01298ab3          	add	s5,s3,s2
    7bf4:	04000513          	li	a0,64
    7bf8:	0c010593          	add	a1,sp,192
    7bfc:	00040613          	mv	a2,s0
    7c00:	951f90ef          	jal	1550 <sha256_update_nblocks>
    7c04:	006b9513          	sll	a0,s7,0x6
    7c08:	00040613          	mv	a2,s0
    7c0c:	00098593          	mv	a1,s3
    7c10:	941f90ef          	jal	1550 <sha256_update_nblocks>
    7c14:	00000313          	li	t1,0
    7c18:	04000293          	li	t0,64
    7c1c:	00000813          	li	a6,0
    7c20:	01228fb3          	add	t6,t0,s2
    7c24:	012fb0b3          	sltu	ra,t6,s2
    7c28:	01030f33          	add	t5,t1,a6
    7c2c:	001f0f33          	add	t5,t5,ra
    7c30:	000f8813          	mv	a6,t6
    7c34:	00000313          	li	t1,0
    7c38:	01680533          	add	a0,a6,s6
    7c3c:	016530b3          	sltu	ra,a0,s6
    7c40:	006f05b3          	add	a1,t5,t1
    7c44:	001585b3          	add	a1,a1,ra
    7c48:	00040713          	mv	a4,s0
    7c4c:	000a8693          	mv	a3,s5
    7c50:	000b0613          	mv	a2,s6
    7c54:	965f90ef          	jal	15b8 <sha256_update_last>
    7c58:	01c0006f          	j	7c74 <Hacl_HMAC_compute_sha2_256+0x2f4>
    7c5c:	00000593          	li	a1,0
    7c60:	04000513          	li	a0,64
    7c64:	04000613          	li	a2,64
    7c68:	0c010693          	add	a3,sp,192
    7c6c:	00040713          	mv	a4,s0
    7c70:	949f90ef          	jal	15b8 <sha256_update_last>
    7c74:	000a0593          	mv	a1,s4
    7c78:	00040513          	mv	a0,s0
    7c7c:	eddf90ef          	jal	1b58 <sha256_finish>
    7c80:	0c010993          	add	s3,sp,192
    7c84:	00040513          	mv	a0,s0
    7c88:	850f90ef          	jal	cd8 <sha256_init>
    7c8c:	00000393          	li	t2,0
    7c90:	02000a13          	li	s4,32
    7c94:	00000a93          	li	s5,0
    7c98:	02712c23          	sw	t2,56(sp)
    7c9c:	03412e23          	sw	s4,60(sp)
    7ca0:	00000013          	nop
    7ca4:	03812f83          	lw	t6,56(sp)
    7ca8:	05f12c23          	sw	t6,88(sp)
    7cac:	03c12f83          	lw	t6,60(sp)
    7cb0:	05f12e23          	sw	t6,92(sp)
    7cb4:	00000013          	nop
    7cb8:	006a9913          	sll	s2,s5,0x6
    7cbc:	0c010b13          	add	s6,sp,192
    7cc0:	012989b3          	add	s3,s3,s2
    7cc4:	04000513          	li	a0,64
    7cc8:	10010593          	add	a1,sp,256
    7ccc:	00040613          	mv	a2,s0
    7cd0:	881f90ef          	jal	1550 <sha256_update_nblocks>
    7cd4:	006a9513          	sll	a0,s5,0x6
    7cd8:	00040613          	mv	a2,s0
    7cdc:	000b0593          	mv	a1,s6
    7ce0:	871f90ef          	jal	1550 <sha256_update_nblocks>
    7ce4:	00000713          	li	a4,0
    7ce8:	04000693          	li	a3,64
    7cec:	00000513          	li	a0,0
    7cf0:	012683b3          	add	t2,a3,s2
    7cf4:	0123b0b3          	sltu	ra,t2,s2
    7cf8:	00a70633          	add	a2,a4,a0
    7cfc:	00160633          	add	a2,a2,ra
    7d00:	00000e13          	li	t3,0
    7d04:	01438533          	add	a0,t2,s4
    7d08:	014530b3          	sltu	ra,a0,s4
    7d0c:	01c605b3          	add	a1,a2,t3
    7d10:	001585b3          	add	a1,a1,ra
    7d14:	00040713          	mv	a4,s0
    7d18:	00098693          	mv	a3,s3
    7d1c:	000a0613          	mv	a2,s4
    7d20:	899f90ef          	jal	15b8 <sha256_update_last>
    7d24:	00048593          	mv	a1,s1
    7d28:	00040513          	mv	a0,s0
    7d2c:	e2df90ef          	jal	1b58 <sha256_finish>
    7d30:	00812403          	lw	s0,8(sp)
    7d34:	00c12483          	lw	s1,12(sp)
    7d38:	01012903          	lw	s2,16(sp)
    7d3c:	01412983          	lw	s3,20(sp)
    7d40:	01812a03          	lw	s4,24(sp)
    7d44:	01c12a83          	lw	s5,28(sp)
    7d48:	02012b03          	lw	s6,32(sp)
    7d4c:	02412b83          	lw	s7,36(sp)
    7d50:	02812c03          	lw	s8,40(sp)
    7d54:	00412083          	lw	ra,4(sp)
    7d58:	16010113          	add	sp,sp,352
    7d5c:	00008067          	ret

Disassembly of section .rodata:

00007d60 <h256>:
    7d60:	6a09e667          	.insn	4, 0x6a09e667
    7d64:	ae85                	.insn	2, 0xae85
    7d66:	f372bb67          	.insn	4, 0xf372bb67
    7d6a:	3c6e                	.insn	2, 0x3c6e
    7d6c:	f53a                	.insn	2, 0xf53a
    7d6e:	527fa54f          	fnmadd.d	fa0,ft11,ft7,fa0,rdn
    7d72:	510e                	.insn	2, 0x510e
    7d74:	688c                	.insn	2, 0x688c
    7d76:	9b05                	.insn	2, 0x9b05
    7d78:	1f83d9ab          	.insn	4, 0x1f83d9ab
    7d7c:	cd19                	.insn	2, 0xcd19
    7d7e:	5be0                	.insn	2, 0x5be0

00007d80 <k224_256>:
    7d80:	2f98                	.insn	2, 0x2f98
    7d82:	428a                	.insn	2, 0x428a
    7d84:	4491                	.insn	2, 0x4491
    7d86:	fbcf7137          	lui	sp,0xfbcf7
    7d8a:	b5c0                	.insn	2, 0xb5c0
    7d8c:	dba5                	.insn	2, 0xdba5
    7d8e:	e9b5                	.insn	2, 0xe9b5
    7d90:	3956c25b          	.insn	4, 0x3956c25b
    7d94:	11f1                	.insn	2, 0x11f1
    7d96:	59f1                	.insn	2, 0x59f1
    7d98:	82a4                	.insn	2, 0x82a4
    7d9a:	5ed5923f aa98ab1c 	.insn	8, 0xaa98ab1c5ed5923f
    7da2:	5b01d807          	.insn	4, 0x5b01d807
    7da6:	85be1283          	lh	t0,-1957(t3)
    7daa:	2431                	.insn	2, 0x2431
    7dac:	550c7dc3          	.insn	4, 0x550c7dc3
    7db0:	5d74                	.insn	2, 0x5d74
    7db2:	72be                	.insn	2, 0x72be
    7db4:	b1fe                	.insn	2, 0xb1fe
    7db6:	80de                	.insn	2, 0x80de
    7db8:	9bdc06a7          	.insn	4, 0x9bdc06a7
    7dbc:	f174                	.insn	2, 0xf174
    7dbe:	69c1c19b          	.insn	4, 0x69c1c19b
    7dc2:	4786e49b          	.insn	4, 0x4786e49b
    7dc6:	efbe                	.insn	2, 0xefbe
    7dc8:	9dc6                	.insn	2, 0x9dc6
    7dca:	0fc1                	.insn	2, 0x0fc1
    7dcc:	a1cc                	.insn	2, 0xa1cc
    7dce:	240c                	.insn	2, 0x240c
    7dd0:	2de92c6f          	jal	s8,9a0ae <_erodata+0x90a2e>
    7dd4:	84aa                	.insn	2, 0x84aa
    7dd6:	4a74                	.insn	2, 0x4a74
    7dd8:	a9dc                	.insn	2, 0xa9dc
    7dda:	5cb0                	.insn	2, 0x5cb0
    7ddc:	88da                	.insn	2, 0x88da
    7dde:	76f9                	.insn	2, 0x76f9
    7de0:	5152                	.insn	2, 0x5152
    7de2:	983e                	.insn	2, 0x983e
    7de4:	c66d                	.insn	2, 0xc66d
    7de6:	a831                	.insn	2, 0xa831
    7de8:	27c8                	.insn	2, 0x27c8
    7dea:	7fc7b003          	.insn	4, 0x7fc7b003
    7dee:	bf59                	.insn	2, 0xbf59
    7df0:	c6e00bf3          	.insn	4, 0xc6e00bf3
    7df4:	d5a79147          	.insn	4, 0xd5a79147
    7df8:	6351                	.insn	2, 0x6351
    7dfa:	06ca                	.insn	2, 0x06ca
    7dfc:	14292967          	.insn	4, 0x14292967
    7e00:	0a85                	.insn	2, 0x0a85
    7e02:	213827b7          	lui	a5,0x21382
    7e06:	6dfc2e1b          	.insn	4, 0x6dfc2e1b
    7e0a:	4d2c                	.insn	2, 0x4d2c
    7e0c:	53380d13          	add	s10,a6,1331
    7e10:	7354                	.insn	2, 0x7354
    7e12:	650a                	.insn	2, 0x650a
    7e14:	766a0abb          	.insn	4, 0x766a0abb
    7e18:	c92e                	.insn	2, 0xc92e
    7e1a:	81c2                	.insn	2, 0x81c2
    7e1c:	2c85                	.insn	2, 0x2c85
    7e1e:	9272                	.insn	2, 0x9272
    7e20:	e8a1                	.insn	2, 0xe8a1
    7e22:	664ba2bf 8b70a81a 	.insn	8, 0x8b70a81a664ba2bf
    7e2a:	51a3c24b          	fnmsub.s	ft4,ft7,fs10,fa0,rmm
    7e2e:	c76c                	.insn	2, 0xc76c
    7e30:	e819                	.insn	2, 0xe819
    7e32:	d192                	.insn	2, 0xd192
    7e34:	0624                	.insn	2, 0x0624
    7e36:	d699                	.insn	2, 0xd699
    7e38:	3585                	.insn	2, 0x3585
    7e3a:	f40e                	.insn	2, 0xf40e
    7e3c:	a070                	.insn	2, 0xa070
    7e3e:	106a                	.insn	2, 0x106a
    7e40:	c116                	.insn	2, 0xc116
    7e42:	19a4                	.insn	2, 0x19a4
    7e44:	6c08                	.insn	2, 0x6c08
    7e46:	774c1e37          	lui	t3,0x774c1
    7e4a:	2748                	.insn	2, 0x2748
    7e4c:	bcb5                	.insn	2, 0xbcb5
    7e4e:	34b0                	.insn	2, 0x34b0
    7e50:	391c0cb3          	.insn	4, 0x391c0cb3
    7e54:	aa4a                	.insn	2, 0xaa4a
    7e56:	4ed8                	.insn	2, 0x4ed8
    7e58:	5b9cca4f          	fnmadd.d	fs4,fs9,fs9,fa1,rmm
    7e5c:	682e6ff3          	csrrs	t6,0x682,28
    7e60:	82ee                	.insn	2, 0x82ee
    7e62:	636f748f          	.insn	4, 0x636f748f
    7e66:	78a5                	.insn	2, 0x78a5
    7e68:	7814                	.insn	2, 0x7814
    7e6a:	84c8                	.insn	2, 0x84c8
    7e6c:	0208                	.insn	2, 0x0208
    7e6e:	fffa8cc7          	.insn	4, 0xfffa8cc7
    7e72:	90be                	.insn	2, 0x90be
    7e74:	a4506ceb          	.insn	4, 0xa4506ceb
    7e78:	bef9a3f7          	.insn	4, 0xbef9a3f7
    7e7c:	78f2                	.insn	2, 0x78f2
    7e7e:	c671                	.insn	2, 0xc671

00007e80 <precomp_basepoint_table_w4>:
	...
    7ea0:	0001                	.insn	2, 0x0001
	...
    7eaa:	0000                	.insn	2, 0x
    7eac:	ffff                	.insn	2, 0xffff
    7eae:	ffff                	.insn	2, 0xffff
    7eb0:	ffff                	.insn	2, 0xffff
    7eb2:	ffff                	.insn	2, 0xffff
    7eb4:	ffff                	.insn	2, 0xffff
    7eb6:	ffff                	.insn	2, 0xffff
    7eb8:	fffe                	.insn	2, 0xfffe
    7eba:	ffff                	.insn	2, 0xffff
	...
    7ee0:	143c                	.insn	2, 0x143c
    7ee2:	18a9                	.insn	2, 0x18a9
    7ee4:	30d4                	.insn	2, 0x30d4
    7ee6:	b60179e7          	.insn	4, 0xb60179e7
    7eea:	5fed                	.insn	2, 0x5fed
    7eec:	95fc                	.insn	2, 0x95fc
    7eee:	75ba                	.insn	2, 0x75ba
    7ef0:	2510                	.insn	2, 0x2510
    7ef2:	7762                	.insn	2, 0x7762
    7ef4:	79fb732b          	.insn	4, 0x79fb732b
    7ef8:	55c6                	.insn	2, 0x55c6
    7efa:	5f76a537          	lui	a0,0x5f76a
    7efe:	1890                	.insn	2, 0x1890
    7f00:	560a                	.insn	2, 0x560a
    7f02:	ce95                	.insn	2, 0xce95
    7f04:	ddf25357          	.insn	4, 0xddf25357
    7f08:	e45c                	.insn	2, 0xe45c
    7f0a:	ba19                	.insn	2, 0xba19
    7f0c:	b8e4                	.insn	2, 0xb8e4
    7f0e:	8b4a                	.insn	2, 0x8b4a
    7f10:	f325                	.insn	2, 0xf325
    7f12:	dd21                	.insn	2, 0xdd21
    7f14:	8688                	.insn	2, 0x8688
    7f16:	d2e8                	.insn	2, 0xd2e8
    7f18:	5d85                	.insn	2, 0x5d85
    7f1a:	2588                	.insn	2, 0x2588
    7f1c:	ff18                	.insn	2, 0xff18
    7f1e:	8571                	.insn	2, 0x8571
    7f20:	0001                	.insn	2, 0x0001
	...
    7f2a:	0000                	.insn	2, 0x
    7f2c:	ffff                	.insn	2, 0xffff
    7f2e:	ffff                	.insn	2, 0xffff
    7f30:	ffff                	.insn	2, 0xffff
    7f32:	ffff                	.insn	2, 0xffff
    7f34:	ffff                	.insn	2, 0xffff
    7f36:	ffff                	.insn	2, 0xffff
    7f38:	fffe                	.insn	2, 0xfffe
    7f3a:	ffff                	.insn	2, 0xffff
    7f3c:	0000                	.insn	2, 0x
    7f3e:	0000                	.insn	2, 0x
    7f40:	56dd                	.insn	2, 0x56dd
    7f42:	981f0307          	.insn	4, 0x981f0307
    7f46:	9396                	.insn	2, 0x9396
    7f48:	2a125983          	lhu	s3,673(tp) # 2a1 <compute+0x21>
    7f4c:	f755                	.insn	2, 0xf755
    7f4e:	04e0                	.insn	2, 0x04e0
    7f50:	ad78                	.insn	2, 0xad78
    7f52:	3274                	.insn	2, 0x3274
    7f54:	c1aa                	.insn	2, 0xc1aa
    7f56:	eb1793bb          	.insn	4, 0xeb1793bb
    7f5a:	d1ee                	.insn	2, 0xd1ee
    7f5c:	3216acbf 3ccc950d 	.insn	8, 0x3ccc950d3216acbf
    7f64:	6712                	.insn	2, 0x6712
    7f66:	dab9                	.insn	2, 0xdab9
    7f68:	aa13daa3          	.insn	4, 0xaa13daa3
    7f6c:	a95e                	.insn	2, 0xa95e
    7f6e:	cf48                	.insn	2, 0xcf48
    7f70:	ce880027          	.insn	4, 0xce880027
    7f74:	128d                	.insn	2, 0x128d
    7f76:	da98                	.insn	2, 0xda98
    7f78:	1fde                	.insn	2, 0x1fde
    7f7a:	77bd                	.insn	2, 0x77bd
    7f7c:	4f1f f9f8 dc01      	.insn	6, 0xdc01f9f84f1f
    7f82:	90d6                	.insn	2, 0x90d6
    7f84:	ad15                	.insn	2, 0xad15
    7f86:	1d501bab          	.insn	4, 0x1d501bab
    7f8a:	a54a                	.insn	2, 0xa54a
    7f8c:	fb09                	.insn	2, 0xfb09
    7f8e:	bb0f8f93          	add	t6,t6,-1104 # fefffbb0 <_ebss+0xdeffecf4>
    7f92:	1d7e                	.insn	2, 0x1d7e
    7f94:	6b812357          	.insn	4, 0x6b812357
    7f98:	282d                	.insn	2, 0x282d
    7f9a:	3d1a                	.insn	2, 0x3d1a
    7f9c:	e698                	.insn	2, 0xe698
    7f9e:	c976                	.insn	2, 0xc976
    7fa0:	fca3d9a7          	.insn	4, 0xfca3d9a7
    7fa4:	5fc2                	.insn	2, 0x5fc2
    7fa6:	c3fd                	.insn	2, 0xc3fd
    7fa8:	08aa787b          	.insn	4, 0x08aa787b
    7fac:	d266                	.insn	2, 0xd266
    7fae:	7ccaeb03          	.insn	4, 0x7ccaeb03
    7fb2:	84f4                	.insn	2, 0x84f4
    7fb4:	8cb8                	.insn	2, 0x8cb8
    7fb6:	4f71                	.insn	2, 0x4f71
    7fb8:	a381                	.insn	2, 0xa381
    7fba:	6b2e                	.insn	2, 0x6b2e
    7fbc:	90b0                	.insn	2, 0x90b0
    7fbe:	5cf57cab          	.insn	4, 0x5cf57cab
    7fc2:	c480                	.insn	2, 0xc480
    7fc4:	ab51                	.insn	2, 0xab51
    7fc6:	76f0254b          	.insn	4, 0x76f0254b
    7fca:	3bde                	.insn	2, 0x3bde
    7fcc:	00d6                	.insn	2, 0x00d6
    7fce:	e556                	.insn	2, 0xe556
    7fd0:	a83e                	.insn	2, 0xa83e
    7fd2:	f1d2                	.insn	2, 0xf1d2
    7fd4:	d939                	.insn	2, 0xd939
    7fd6:	6981                	.insn	2, 0x6981
    7fd8:	5a8c                	.insn	2, 0x5a8c
    7fda:	7088                	.insn	2, 0x7088
    7fdc:	7a5c                	.insn	2, 0x7a5c
    7fde:	42ce                	.insn	2, 0x42ce
    7fe0:	d6cd53a7          	.insn	4, 0xd6cd53a7
    7fe4:	3f4c                	.insn	2, 0x3f4c
    7fe6:	6a96                	.insn	2, 0x6a96
    7fe8:	9e26                	.insn	2, 0x9e26
    7fea:	ca8d                	.insn	2, 0xca8d
    7fec:	846e                	.insn	2, 0x846e
    7fee:	3ecb5ccf          	.insn	4, 0x3ecb5ccf
    7ff2:	2208                	.insn	2, 0x2208
    7ff4:	f60e                	.insn	2, 0xf60e
    7ff6:	faff                	.insn	2, 0xfaff
    7ff8:	8b19                	.insn	2, 0x8b19
    7ffa:	f50e                	.insn	2, 0xf50e
    7ffc:	6569                	.insn	2, 0x6569
    7ffe:	85c0                	.insn	2, 0x85c0
    8000:	3ab2                	.insn	2, 0x3ab2
    8002:	3994                	.insn	2, 0x3994
    8004:	cd2f41cf          	.insn	4, 0xcd2f41cf
    8008:	87dd                	.insn	2, 0x87dd
    800a:	65d66e23          	.insn	4, 0x65d66e23
    800e:	48a33543          	fmadd.s	fa0,ft6,fa0,fs1,rup
    8012:	8a80                	.insn	2, 0x8a80
    8014:	3158157b          	.insn	4, 0x3158157b
    8018:	ba7f3e27          	fsd	ft7,-1092(t5)
    801c:	a28a                	.insn	2, 0xa28a
    801e:	47d8                	.insn	2, 0x47d8
    8020:	042c7f03          	.insn	4, 0x042c7f03
    8024:	004c                	.insn	2, 0x004c
    8026:	fcd4                	.insn	2, 0xfcd4
    8028:	39a9                	.insn	2, 0x39a9
    802a:	b984                	.insn	2, 0xb984
    802c:	b53a                	.insn	2, 0xb53a
    802e:	7fc7e1f3          	csrrs	gp,0x7fc,15
    8032:	2538c037          	lui	zero,0x2538c
    8036:	755d1527          	.insn	4, 0x755d1527
    803a:	3cde                	.insn	2, 0x3cde
    803c:	df10                	.insn	2, 0xdf10
    803e:	3990                	.insn	2, 0x3990
    8040:	8a69                	.insn	2, 0x8a69
    8042:	8e10                	.insn	2, 0x8e10
    8044:	27aaaff3          	csrrs	t6,0x27a,s5
    8048:	31bc                	.insn	2, 0x31bc
    804a:	f0f2                	.insn	2, 0xf0f2
    804c:	1bc6                	.insn	2, 0x1bc6
    804e:	63397c1b          	.insn	4, 0x63397c1b
    8052:	ec94                	.insn	2, 0xec94
    8054:	8960                	.insn	2, 0x8960
    8056:	2a1c                	.insn	2, 0x2a1c
    8058:	47ac                	.insn	2, 0x47ac
    805a:	d5c6                	.insn	2, 0xd5c6
    805c:	d966                	.insn	2, 0xd966
    805e:	753c                	.insn	2, 0x753c
    8060:	8f42                	.insn	2, 0x8f42
    8062:	5268                	.insn	2, 0x5268
    8064:	9b7feb97          	auipc	s7,0x9b7fe
    8068:	0249                	.insn	2, 0x0249
    806a:	b131                	.insn	2, 0xb131
    806c:	0430                	.insn	2, 0x0430
    806e:	fe6e                	.insn	2, 0xfe6e
    8070:	0786                	.insn	2, 0x0786
    8072:	9b59                	.insn	2, 0x9b59
    8074:	729ffbbb          	.insn	4, 0x729ffbbb
    8078:	76ca                	.insn	2, 0x76ca
    807a:	5f6e                	.insn	2, 0x5f6e
    807c:	f1cc                	.insn	2, 0xf1cc
    807e:	dc6d8463          	beq	s11,t1,7646 <Hacl_P256_ecdsa_sign_p256_without_hash+0x173e>
    8082:	f7bb4307          	.insn	4, 0xf7bb4307
    8086:	87f6                	.insn	2, 0x87f6
    8088:	d5c9                	.insn	2, 0xd5c9
    808a:	1ade04ab          	.insn	4, 0x1ade04ab
    808e:	502d                	.insn	2, 0x502d
    8090:	ac74                	.insn	2, 0xac74
    8092:	73e4                	.insn	2, 0x73e4
    8094:	6ece                	.insn	2, 0x6ece
    8096:	7948                	.insn	2, 0x7948
    8098:	6cce                	.insn	2, 0x6cce
    809a:	de01df6b          	.insn	4, 0xde01df6b
    809e:	cd9c                	.insn	2, 0xcd9c
    80a0:	8e69                	.insn	2, 0x8e69
    80a2:	57ee                	.insn	2, 0x57ee
    80a4:	d424d927          	.insn	4, 0xd424d927
    80a8:	cb22                	.insn	2, 0xcb22
    80aa:	9826                	.insn	2, 0x9826
    80ac:	f4366407          	.insn	4, 0xf4366407
    80b0:	8f3e                	.insn	2, 0x8f3e
    80b2:	c794                	.insn	2, 0xc794
    80b4:	7048                	.insn	2, 0x7048
    80b6:	b802                	.insn	2, 0xb802
    80b8:	b1fe                	.insn	2, 0xb1fe
    80ba:	95d0                	.insn	2, 0x95d0
    80bc:	31a0                	.insn	2, 0x31a0
    80be:	91bc                	.insn	2, 0x91bc
    80c0:	c91a                	.insn	2, 0xc91a
    80c2:	167e                	.insn	2, 0x167e
    80c4:	5b5d                	.insn	2, 0x5b5d
    80c6:	10f2                	.insn	2, 0x10f2
    80c8:	c80d                	.insn	2, 0xc80d
    80ca:	4f16                	.insn	2, 0x4f16
    80cc:	ca6e512b          	.insn	4, 0xca6e512b
    80d0:	e26c                	.insn	2, 0xe26c
    80d2:	1ad6                	.insn	2, 0x1ad6
    80d4:	d6e5                	.insn	2, 0xd6e5
    80d6:	0c6c                	.insn	2, 0x0c6c
    80d8:	ffed7977          	.insn	4, 0xffed7977
    80dc:	94e6                	.insn	2, 0x94e6
    80de:	c7d0                	.insn	2, 0xc7d0
    80e0:	93350eaf          	.insn	4, 0x93350eaf
    80e4:	9626                	.insn	2, 0x9626
    80e6:	851f 4b4a 778f      	.insn	6, 0x778f4b4a851f
    80ec:	ef4454c7          	.insn	4, 0xef4454c7
    80f0:	560c                	.insn	2, 0x560c
    80f2:	c85d                	.insn	2, 0xc85d
    80f4:	6491                	.insn	2, 0x6491
    80f6:	7035                	.insn	2, 0x7035
    80f8:	2bca                	.insn	2, 0x2bca
    80fa:	d18fef6b          	.insn	4, 0xd18fef6b
    80fe:	ce02                	.insn	2, 0xce02
    8100:	347a                	.insn	2, 0x347a
    8102:	b1c8                	.insn	2, 0xb1c8
    8104:	dcfb5f07          	.insn	4, 0xdcfb5f07
    8108:	21f5                	.insn	2, 0x21f5
    810a:	edb4                	.insn	2, 0xedb4
    810c:	5a91                	.insn	2, 0x5a91
    810e:	299a                	.insn	2, 0x299a
    8110:	96ec6dab          	.insn	4, 0x96ec6dab
    8114:	06dc30a7          	fsd	fa3,97(s8)
    8118:	e1cc                	.insn	2, 0xe1cc
    811a:	97cc                	.insn	2, 0x97cc
    811c:	0475                	.insn	2, 0x0475
    811e:	10df e88a f04d      	.insn	6, 0xf04de88a10df
    8124:	83824067          	.insn	4, 0x83824067
    8128:	dd949b33          	.insn	4, 0xdd949b33
    812c:	67d11a93          	.insn	4, 0x67d11a93
    8130:	4e79                	.insn	2, 0x4e79
    8132:	b2e2fc9b          	.insn	4, 0xb2e2fc9b
    8136:	d31c                	.insn	2, 0xd31c
    8138:	9ac4                	.insn	2, 0x9ac4
    813a:	ac9a                	.insn	2, 0xac9a
    813c:	a7f1                	.insn	2, 0xa7f1
    813e:	060d                	.insn	2, 0x060d
    8140:	af62                	.insn	2, 0xaf62
    8142:	ce3e                	.insn	2, 0xce3e
    8144:	30e4                	.insn	2, 0x30e4
    8146:	f129                	.insn	2, 0xf129
    8148:	9ac421d3          	.insn	4, 0x9ac421d3
    814c:	bf70                	.insn	2, 0xbf70
    814e:	d374                	.insn	2, 0xd374
    8150:	bc2c                	.insn	2, 0xbc2c
    8152:	abbd                	.insn	2, 0xabbd
    8154:	c766                	.insn	2, 0xc766
    8156:	9ed2                	.insn	2, 0x9ed2
    8158:	ca5f 376f 22c2      	.insn	6, 0x22c2376fca5f
    815e:	46f4                	.insn	2, 0x46f4
    8160:	6dc9                	.insn	2, 0x6dc9
    8162:	0645a46f          	jal	s0,621c6 <_erodata+0x58b46>
    8166:	0d32                	.insn	2, 0x0d32
    8168:	a5df 6ff6 d0d0      	.insn	6, 0xd0d06ff6a5df
    816e:	f526                	.insn	2, 0xf526
    8170:	e789                	.insn	2, 0xe789
    8172:	e99da173          	csrrs	sp,0xe99,s11
    8176:	eec4                	.insn	2, 0xeec4
    8178:	8395                	.insn	2, 0x8395
    817a:	83f0                	.insn	2, 0x83f0
    817c:	eb69                	.insn	2, 0xeb69
    817e:	e149                	.insn	2, 0xe149
    8180:	e58db76f          	jal	a4,fffe37d8 <_ebss+0xdffe291c>
    8184:	52d9                	.insn	2, 0x52d9
    8186:	be248c7b          	.insn	4, 0xbe248c7b
    818a:	8860                	.insn	2, 0x8860
    818c:	2e8685ef          	jal	a1,70474 <_erodata+0x66df4>
    8190:	7be71d03          	lh	s10,1982(a4)
    8194:	7ee2fd23          	.insn	4, 0x7ee2fd23
    8198:	80ec                	.insn	2, 0x80ec
    819a:	dca6bf13          	sltiu	t5,a3,-566
    819e:	88ae0857          	.insn	4, 0x88ae0857
    81a2:	6370                	.insn	2, 0x6370
    81a4:	0050                	.insn	2, 0x0050
    81a6:	b9f2                	.insn	2, 0xb9f2
    81a8:	375543af          	.insn	4, 0x375543af
    81ac:	2b5e                	.insn	2, 0x2b5e
    81ae:	d748                	.insn	2, 0xd748
    81b0:	79ad                	.insn	2, 0x79ad
    81b2:	fc94                	.insn	2, 0xfc94
    81b4:	a60d                	.insn	2, 0xa60d
    81b6:	7eae                	.insn	2, 0x7eae
    81b8:	23d2                	.insn	2, 0x23d2
    81ba:	565a                	.insn	2, 0x565a
    81bc:	d066                	.insn	2, 0xd066
    81be:	f0519be3          	bne	gp,t0,80d4 <precomp_basepoint_table_w4+0x254>
    81c2:	65cc                	.insn	2, 0x65cc
    81c4:	8c08                	.insn	2, 0x8c08
    81c6:	5df1                	.insn	2, 0x5df1
    81c8:	71d0                	.insn	2, 0x71d0
    81ca:	1800                	.insn	2, 0x1800
    81cc:	d946                	.insn	2, 0xd946
    81ce:	8c8f9633          	.insn	4, 0x8c8f9633
    81d2:	ceac                	.insn	2, 0xceac
    81d4:	0e1f 8abf d287      	.insn	6, 0xd2878abf0e1f
    81da:	6bc0                	.insn	2, 0x6bc0
    81dc:	eef2                	.insn	2, 0xeef2
    81de:	5d71                	.insn	2, 0x5d71
    81e0:	6c52                	.insn	2, 0x6c52
    81e2:	bb55                	.insn	2, 0xbb55
    81e4:	12d1                	.insn	2, 0x12d1
    81e6:	e23d                	.insn	2, 0xe23d
    81e8:	cc81                	.insn	2, 0xcc81
    81ea:	ca75                	.insn	2, 0xca75
    81ec:	a789                	.insn	2, 0xa789
    81ee:	172a                	.insn	2, 0x172a
    81f0:	d7d2                	.insn	2, 0xd7d2
    81f2:	662e                	.insn	2, 0x662e
    81f4:	24f01093          	.insn	4, 0x24f01093
    81f8:	dfb5                	.insn	2, 0xdfb5
    81fa:	759f b5e6 ee74      	.insn	6, 0xee74b5e6759f
    8200:	2ec8                	.insn	2, 0x2ec8
    8202:	2d15                	.insn	2, 0x2d15
    8204:	3489                	.insn	2, 0x3489
    8206:	8667102b          	.insn	4, 0x8667102b
    820a:	effd                	.insn	2, 0xeffd
    820c:	50d1                	.insn	2, 0x50d1
    820e:	836e                	.insn	2, 0x836e
    8210:	8084                	.insn	2, 0x8084
    8212:	182a                	.insn	2, 0x182a
    8214:	4a74                	.insn	2, 0x4a74
    8216:	553d                	.insn	2, 0x553d
    8218:	869b3a37          	lui	s4,0x869b3
    821c:	5234                	.insn	2, 0x5234
    821e:	4304                	.insn	2, 0x4304
    8220:	d6b2                	.insn	2, 0xd6b2
    8222:	216d24bf 59078dfd 	.insn	8, 0x59078dfd216d24bf
    822a:	62f9                	.insn	2, 0x62f9
    822c:	851d3137          	lui	sp,0x851d3
    8230:	754a                	.insn	2, 0x754a
    8232:	61c8                	.insn	2, 0x61c8
    8234:	757f                	.insn	2, 0x757f
    8236:	886b8f2b          	.insn	4, 0x886b8f2b
    823a:	d8a5bf0b          	.insn	4, 0xd8a5bf0b
    823e:	a0e0                	.insn	2, 0xa0e0
    8240:	7570                	.insn	2, 0x7570
    8242:	7d802a43          	.insn	4, 0x7d802a43
    8246:	8894b9e7          	.insn	4, 0x8894b9e7
    824a:	4f86                	.insn	2, 0x4f86
    824c:	e354                	.insn	2, 0xe354
    824e:	17580717          	auipc	a4,0x17580
    8252:	58c5                	.insn	2, 0x58c5
    8254:	ac91e94f          	.insn	4, 0xac91e94f
    8258:	c8ec88d7          	.insn	4, 0xc8ec88d7
    825c:	6191                	.insn	2, 0x6191
    825e:	2f88                	.insn	2, 0x2f88
    8260:	3555                	.insn	2, 0x3555
    8262:	2238                	.insn	2, 0x2238
    8264:	bfad                	.insn	2, 0xbfad
    8266:	5e9a                	.insn	2, 0x5e9a
    8268:	f990                	.insn	2, 0xf990
    826a:	eb9e                	.insn	2, 0xeb9e
    826c:	7e16                	.insn	2, 0x7e16
    826e:	d656                	.insn	2, 0xd656
    8270:	da38                	.insn	2, 0xda38
    8272:	f71e                	.insn	2, 0xf71e
    8274:	83582003          	lw	zero,-1995(a6)
    8278:	9ec900b3          	.insn	4, 0x9ec900b3
    827c:	921c                	.insn	2, 0x921c
    827e:	e084                	.insn	2, 0xe084
    8280:	5924                	.insn	2, 0x5924
    8282:	bbec                	.insn	2, 0xbbec
    8284:	3520                	.insn	2, 0x3520
    8286:	852a                	.insn	2, 0x852a
    8288:	9a3e                	.insn	2, 0x9a3e
    828a:	b032                	.insn	2, 0xb032
    828c:	dd54                	.insn	2, 0xdd54
    828e:	e72b6453          	.insn	4, 0xe72b6453
    8292:	aab1b087          	fld	ft1,-1365(gp)
    8296:	3fda                	.insn	2, 0x3fda
    8298:	6032                	.insn	2, 0x6032
    829a:	817d                	.insn	2, 0x817d
    829c:	4bb437d7          	.insn	4, 0x4bb437d7
    82a0:	0201                	.insn	2, 0x0201
    82a2:	3455                	.insn	2, 0x3455
    82a4:	96a163e7          	.insn	4, 0x96a163e7
    82a8:	5eded227          	.insn	4, 0x5eded227
    82ac:	d049                	.insn	2, 0xd049
    82ae:	ed4ddcd7          	.insn	4, 0xed4ddcd7
    82b2:	f2b1                	.insn	2, 0xf2b1
    82b4:	e19f 1fe1 8aa6      	.insn	6, 0x8aa61fe1e19f
    82ba:	9c19268b          	.insn	4, 0x9c19268b
    82be:	2420                	.insn	2, 0x2420
    82c0:	2936                	.insn	2, 0x2936
    82c2:	0ced                	.insn	2, 0x0ced
    82c4:	9469                	.insn	2, 0x9469
    82c6:	2cfa5def          	jal	s11,add94 <_erodata+0xa4714>
    82ca:	0cba                	.insn	2, 0x0cba
    82cc:	b234                	.insn	2, 0xb234
    82ce:	d9f6                	.insn	2, 0xd9f6
    82d0:	5cf6                	.insn	2, 0x5cf6
    82d2:	6936                	.insn	2, 0x6936
    82d4:	92cc                	.insn	2, 0x92cc
    82d6:	845a                	.insn	2, 0x845a
    82d8:	0cb6                	.insn	2, 0x0cb6
    82da:	0c4a                	.insn	2, 0x0c4a
    82dc:	9e4c                	.insn	2, 0x9e4c
    82de:	f3fa                	.insn	2, 0xf3fa
    82e0:	6fce                	.insn	2, 0x6fce
    82e2:	ede79ac3          	.insn	4, 0xede79ac3
    82e6:	3e66                	.insn	2, 0x3e66
    82e8:	fc8e                	.insn	2, 0xfc8e
    82ea:	ff21                	.insn	2, 0xff21
    82ec:	753053f7          	.insn	4, 0x753053f7
    82f0:	d880                	.insn	2, 0xd880
    82f2:	a346                	.insn	2, 0xa346
    82f4:	11ed                	.insn	2, 0x11ed
    82f6:	a930                	.insn	2, 0xa930
    82f8:	3f15                	.insn	2, 0x3f15
    82fa:	0828                	.insn	2, 0x0828
    82fc:	52f2                	.insn	2, 0x52f2
    82fe:	f1da                	.insn	2, 0xf1da
    8300:	7eb8                	.insn	2, 0x7eb8
    8302:	835e                	.insn	2, 0x835e
    8304:	b2df c68e 3979      	.insn	6, 0x3979c68eb2df
    830a:	49ec                	.insn	2, 0x49ec
    830c:	d8e8                	.insn	2, 0xd8e8
    830e:	c0e8                	.insn	2, 0xc0e8
    8310:	99b2                	.insn	2, 0x99b2
    8312:	fbfc                	.insn	2, 0xfbfc
    8314:	d038                	.insn	2, 0xd038
    8316:	6399                	.insn	2, 0x6399
    8318:	ef492b67          	.insn	4, 0xef492b67
    831c:	78ae                	.insn	2, 0x78ae
    831e:	4f3a                	.insn	2, 0x4f3a
    8320:	bae4                	.insn	2, 0xbae4
    8322:	a50e                	.insn	2, 0xa50e
    8324:	c8d46da3          	.insn	4, 0xc8d46da3
    8328:	2bbe5afb          	.insn	4, 0x2bbe5afb
    832c:	0519                	.insn	2, 0x0519
    832e:	48491453          	.insn	4, 0x48491453
    8332:	4154                	.insn	2, 0x4154
    8334:	2e2ffb03          	.insn	4, 0x2e2ffb03
    8338:	1106                	.insn	2, 0x1106
    833a:	c594                	.insn	2, 0xc594
    833c:	92bc                	.insn	2, 0x92bc
    833e:	b4b1                	.insn	2, 0xb4b1
    8340:	dbe2                	.insn	2, 0xdbe2
    8342:	480c                	.insn	2, 0x480c
    8344:	2678b68b          	.insn	4, 0x2678b68b
    8348:	8bfc                	.insn	2, 0x8bfc
    834a:	d9445527          	.insn	4, 0xd9445527
    834e:	96a2                	.insn	2, 0x96a2
    8350:	f61c                	.insn	2, 0xf61c
    8352:	b73d                	.insn	2, 0xb73d
    8354:	dcd1                	.insn	2, 0xdcd1
    8356:	1b4c                	.insn	2, 0x1b4c
    8358:	b2b28607          	.insn	4, 0xb2b28607
    835c:	f80c                	.insn	2, 0xf80c
    835e:	26e5                	.insn	2, 0x26e5
    8360:	ca68                	.insn	2, 0xca68
    8362:	bbd0                	.insn	2, 0xbbd0
    8364:	8b42                	.insn	2, 0x8b42
    8366:	cd48                	.insn	2, 0xcd48
    8368:	3141                	.insn	2, 0x3141
    836a:	6e64                	.insn	2, 0x6e64
    836c:	cbaa59ab          	.insn	4, 0xcbaa59ab
    8370:	b705                	.insn	2, 0xb705
    8372:	7bb8                	.insn	2, 0x7bb8
    8374:	a090                	.insn	2, 0xa090
    8376:	cdee                	.insn	2, 0xcdee
    8378:	731c                	.insn	2, 0x731c
    837a:	6e46                	.insn	2, 0x6e46
    837c:	8816                	.insn	2, 0x8816
    837e:	172df4af          	.insn	4, 0x172df4af
    8382:	131e                	.insn	2, 0x131e
    8384:	ac0c                	.insn	2, 0xac0c
    8386:	f1f2                	.insn	2, 0xf1f2
    8388:	7c81                	.insn	2, 0x7c81
    838a:	4c30                	.insn	2, 0x4c30
    838c:	48ea                	.insn	2, 0x48ea
    838e:	24fe                	.insn	2, 0x24fe
    8390:	0148ae53          	fadd.s	ft8,fa7,fs4,rdn
    8394:	b7375c6f          	jal	s8,fff7df06 <_ebss+0xdff7d04a>
    8398:	cbfd                	.insn	2, 0xcbfd
    839a:	6bc1                	.insn	2, 0x6bc1
    839c:	6134                	.insn	2, 0x6134
    839e:	6924                	.insn	2, 0x6924
    83a0:	79b8                	.insn	2, 0x79b8
    83a2:	bb9f 7f54 1f88      	.insn	6, 0x1f887f54bb9f
    83a8:	d9baf133          	.insn	4, 0xd9baf133
    83ac:	ca0b1c93          	.insn	4, 0xca0b1c93
    83b0:	ff51                	.insn	2, 0xff51
    83b2:	3d972ee7          	.insn	4, 0x3d972ee7
    83b6:	4ec4                	.insn	2, 0x4ec4
    83b8:	076e                	.insn	2, 0x076e
    83ba:	5e72                	.insn	2, 0x5e72
    83bc:	ab8a                	.insn	2, 0xab8a
    83be:	7d7f                	.insn	2, 0x7d7f
    83c0:	4b29                	.insn	2, 0x4b29
    83c2:	1c94                	.insn	2, 0x1c94
    83c4:	a310ea87          	.insn	4, 0xa310ea87
    83c8:	66a2b747          	.insn	4, 0x66a2b747
    83cc:	0a46fb07          	.insn	4, 0x0a46fb07
    83d0:	b4f1feab          	.insn	4, 0xb4f1feab
    83d4:	7569                	.insn	2, 0x7569
    83d6:	88ff d9e5 67f7 e332 	.insn	10, 0xee66e33267f7d9e588ff
    83de:	ee66 
    83e0:	0911                	.insn	2, 0x0911
    83e2:	2e360d17          	auipc	s10,0x2e360
    83e6:	fa71                	.insn	2, 0xfa71
    83e8:	e05e                	.insn	2, 0xe05e
    83ea:	64ca                	.insn	2, 0x64ca
    83ec:	c960                	.insn	2, 0xc960
    83ee:	3dde                	.insn	2, 0x3dde
    83f0:	749caccb          	.insn	4, 0x749caccb
    83f4:	754d0e43          	.insn	4, 0x754d0e43
    83f8:	9162                	.insn	2, 0x9162
    83fa:	8808                	.insn	2, 0x8808
    83fc:	4936                	.insn	2, 0x4936
    83fe:	bfdd                	.insn	2, 0xbfdd
    8400:	c7b2                	.insn	2, 0xc7b2
    8402:	9070                	.insn	2, 0x9070
    8404:	c1aeb07f 450c7cc7 	.insn	16, 0x59d17da0dc51ca98450c7cc7c1aeb07f
    840c:	dc51ca98 59d17da0 
    8414:	bcf2                	.insn	2, 0xbcf2
    8416:	9396                	.insn	2, 0x9396
    8418:	60b9514f          	fnmadd.s	ft2,fs2,fa1,fa2,unknown
    841c:	b79ad083          	lhu	ra,-1159(s5)
    8420:	db46                	.insn	2, 0xdb46
    8422:	e536                	.insn	2, 0xe536
    8424:	3e91                	.insn	2, 0x3e91
    8426:	0dc47a0f          	.insn	4, 0x0dc47a0f
    842a:	d6d6                	.insn	2, 0xd6d6
    842c:	12e1                	.insn	2, 0x12e1
    842e:	0336612b          	.insn	4, 0x0336612b
    8432:	2bf2b0bb          	.insn	4, 0x2bf2b0bb
    8436:	058d6e53          	.insn	4, 0x058d6e53
    843a:	2775348f          	.insn	4, 0x2775348f
    843e:	cbb1                	.insn	2, 0xcbb1
    8440:	a5c0                	.insn	2, 0xa5c0
    8442:	96fc                	.insn	2, 0x96fc
    8444:	9b35a20f          	.insn	4, 0x9b35a20f
    8448:	7426                	.insn	2, 0x7426
    844a:	5d05                	.insn	2, 0x5d05
    844c:	c18a                	.insn	2, 0xc18a
    844e:	9ba6                	.insn	2, 0x9ba6
    8450:	b926                	.insn	2, 0xb926
    8452:	17df 55f0 596f      	.insn	6, 0x596f55f017df
    8458:	6371                	.insn	2, 0x6371
    845a:	c6c0                	.insn	2, 0xc6c0
    845c:	c94e                	.insn	2, 0xc94e
    845e:	17ad                	.insn	2, 0x17ad
    8460:	1115                	.insn	2, 0x1115
    8462:	e95f 7c28 7268      	.insn	6, 0x72687c28e95f
    8468:	7a68                	.insn	2, 0x7a68
    846a:	d46e                	.insn	2, 0xd46e
    846c:	5fa4                	.insn	2, 0x5fa4
    846e:	d725                	.insn	2, 0xd725
    8470:	fff1                	.insn	2, 0xfff1
    8472:	5422                	.insn	2, 0x5422
    8474:	6812                	.insn	2, 0x6812
    8476:	34b9                	.insn	2, 0x34b9
    8478:	fefe                	.insn	2, 0xfefe
    847a:	7c63c1a3          	.insn	4, 0x7c63c1a3
    847e:	311c                	.insn	2, 0x311c

00008480 <precomp_g_pow2_64_table_w4>:
	...
    84a0:	0001                	.insn	2, 0x0001
	...
    84aa:	0000                	.insn	2, 0x
    84ac:	ffff                	.insn	2, 0xffff
    84ae:	ffff                	.insn	2, 0xffff
    84b0:	ffff                	.insn	2, 0xffff
    84b2:	ffff                	.insn	2, 0xffff
    84b4:	ffff                	.insn	2, 0xffff
    84b6:	ffff                	.insn	2, 0xffff
    84b8:	fffe                	.insn	2, 0xfffe
    84ba:	ffff                	.insn	2, 0xffff
	...
    84e0:	3505                	.insn	2, 0x3505
    84e2:	c262                	.insn	2, 0xc262
    84e4:	b9e4                	.insn	2, 0xb9e4
    84e6:	99a814cf          	fnmadd.s	fs1,fa6,fs10,fs3,rtz
    84ea:	35e0b187          	fld	ft3,862(ra)
    84ee:	4718e7a7          	.insn	4, 0x4718e7a7
    84f2:	4d15                	.insn	2, 0x4d15
    84f4:	d14d                	.insn	2, 0xd14d
    84f6:	d4d9                	.insn	2, 0xd4d9
    84f8:	1c54                	.insn	2, 0x1c54
    84fa:	41e0                	.insn	2, 0x41e0
    84fc:	4bb6ac17          	auipc	s8,0x4bb6a
    8500:	32c0                	.insn	2, 0x32c0
    8502:	5476                	.insn	2, 0x5476
    8504:	49b8                	.insn	2, 0x49b8
    8506:	f766                	.insn	2, 0xf766
    8508:	8939                	.insn	2, 0x8939
    850a:	a818                	.insn	2, 0xa818
    850c:	0b14                	.insn	2, 0x0b14
    850e:	ac46                	.insn	2, 0xac46
    8510:	1cb4                	.insn	2, 0x1cb4
    8512:	0998                	.insn	2, 0x0998
    8514:	6e29                	.insn	2, 0x6e29
    8516:	1fc9                	.insn	2, 0x1fc9
    8518:	4b14                	.insn	2, 0x4b14
    851a:	ca99                	.insn	2, 0xca99
    851c:	6881                	.insn	2, 0x6881
    851e:	da9a                	.insn	2, 0xda9a
    8520:	93fa                	.insn	2, 0x93fa
    8522:	fb3c58d3          	.insn	4, 0xfb3c58d3
    8526:	4341                	.insn	2, 0x4341
    8528:	c655                	.insn	2, 0xc655
    852a:	72f52173          	csrrs	sp,mhpmevent15h,a0
    852e:	96bc                	.insn	2, 0x96bc
    8530:	5329                	.insn	2, 0x5329
    8532:	cfa6                	.insn	2, 0xcfa6
    8534:	9ee2                	.insn	2, 0x9ee2
    8536:	d5c8                	.insn	2, 0xd5c8
    8538:	d9a6                	.insn	2, 0xd9a6
    853a:	975c                	.insn	2, 0x975c
    853c:	b81a                	.insn	2, 0xb81a
    853e:	9e3b050b          	.insn	4, 0x9e3b050b
    8542:	994c7b2b          	.insn	4, 0x994c7b2b
    8546:	88ed                	.insn	2, 0x88ed
    8548:	73da98b3          	.insn	4, 0x73da98b3
    854c:	3404                	.insn	2, 0x3404
    854e:	1022                	.insn	2, 0x1022
    8550:	02f6                	.insn	2, 0x02f6
    8552:	e1e0                	.insn	2, 0xe1e0
    8554:	24a0                	.insn	2, 0x24a0
    8556:	6a2a                	.insn	2, 0x6a2a
    8558:	9ea5                	.insn	2, 0x9ea5
    855a:	f401c787          	.insn	4, 0xf401c787
    855e:	4855                	.insn	2, 0x4855
    8560:	d879d18b          	.insn	4, 0xd879d18b
    8564:	5a44                	.insn	2, 0x5a44
    8566:	86086917          	auipc	s2,0x86086
    856a:	9eaa                	.insn	2, 0x9eaa
    856c:	af29                	.insn	2, 0xaf29
    856e:	ce72                	.insn	2, 0xce72
    8570:	a25ed5a7          	.insn	4, 0xa25ed5a7
    8574:	1ca20e57          	.insn	4, 0x1ca20e57
    8578:	0207c827          	.insn	4, 0x0207c827
    857c:	8bfc                	.insn	2, 0x8bfc
    857e:	c8ff30d7          	.insn	4, 0xc8ff30d7
    8582:	2d14                	.insn	2, 0x2d14
    8584:	b09a                	.insn	2, 0xb09a
    8586:	7470                	.insn	2, 0x7470
    8588:	5c91                	.insn	2, 0x5c91
    858a:	20de                	.insn	2, 0x20de
    858c:	3ca5                	.insn	2, 0x3ca5
    858e:	f52d                	.insn	2, 0xf52d
    8590:	a12146c3          	fmadd.s	fa3,ft2,fs2,fs4,rmm
    8594:	de9a                	.insn	2, 0xde9a
    8596:	8325                	.insn	2, 0x8325
    8598:	a620                	.insn	2, 0xa620
    859a:	f941                	.insn	2, 0xf941
    859c:	002a                	.insn	2, 0x002a
    859e:	773875bb          	.insn	4, 0x773875bb
    85a2:	78c0                	.insn	2, 0x78c0
    85a4:	0515                	.insn	2, 0x0515
    85a6:	56cd                	.insn	2, 0x56cd
    85a8:	40df 5333 0272      	.insn	6, 0x0272533340df
    85ae:	e359                	.insn	2, 0xe359
    85b0:	5b14                	.insn	2, 0x5b14
    85b2:	fb38                	.insn	2, 0xfb38
    85b4:	01bd5dbf d3f5fb89 	.insn	8, 0xd3f5fb8901bd5dbf
    85bc:	9ff2                	.insn	2, 0x9ff2
    85be:	1312                	.insn	2, 0x1312
    85c0:	37ee                	.insn	2, 0x37ee
    85c2:	2c92                	.insn	2, 0x2c92
    85c4:	9db00cf3          	.insn	4, 0x9db00cf3
    85c8:	84c22a2b          	.insn	4, 0x84c22a2b
    85cc:	1d2a938f          	.insn	4, 0x1d2a938f
    85d0:	563e                	.insn	2, 0x563e
    85d2:	6184                	.insn	2, 0x6184
    85d4:	080c                	.insn	2, 0x080c
    85d6:	b142                	.insn	2, 0xb142
    85d8:	8fac                	.insn	2, 0x8fac
    85da:	aa4baebf d4bdae1f 	.insn	8, 0xd4bdae1faa4baebf
    85e2:	4030                	.insn	2, 0x4030
    85e4:	73a0c917          	auipc	s2,0x73a0c
    85e8:	0900                	.insn	2, 0x0900
    85ea:	ff00                	.insn	2, 0xff00
    85ec:	7ee9                	.insn	2, 0x7ee9
    85ee:	a231                	.insn	2, 0xa231
    85f0:	3dd18733          	.insn	4, 0x3dd18733
    85f4:	8969                	.insn	2, 0x8969
    85f6:	7be2                	.insn	2, 0x7be2
    85f8:	2611                	.insn	2, 0x2611
    85fa:	1e92                	.insn	2, 0x1e92
    85fc:	2b99                	.insn	2, 0x2b99
    85fe:	8548                	.insn	2, 0x8548
    8600:	810e39f7          	.insn	4, 0x810e39f7
    8604:	a68e                	.insn	2, 0xa68e
    8606:	e0a6b72f          	.insn	4, 0xe0a6b72f
    860a:	aa74                	.insn	2, 0xaa74
    860c:	1e63eeab          	.insn	4, 0x1e63eeab
    8610:	3b5a                	.insn	2, 0x3b5a
    8612:	7885                	.insn	2, 0x7885
    8614:	9d98e1eb          	.insn	4, 0x9d98e1eb
    8618:	7b08e867          	.insn	4, 0x7b08e867
    861c:	e3f4                	.insn	2, 0xe3f4
    861e:	d3e51c23          	sh	t5,-712(a0) # 5f769d38 <_ebss+0x3f768e7c>
    8622:	4521                	.insn	2, 0x4521
    8624:	fb1d                	.insn	2, 0xfb1d
    8626:	4904                	.insn	2, 0x4904
    8628:	8c08                	.insn	2, 0x8c08
    862a:	e0e1                	.insn	2, 0xe0e1
    862c:	9b2c                	.insn	2, 0x9b2c
    862e:	0222                	.insn	2, 0x0222
    8630:	15a2                	.insn	2, 0x15a2
    8632:	fb66                	.insn	2, 0xfb66
    8634:	d12d                	.insn	2, 0xd12d
    8636:	d865587b          	.insn	4, 0xd865587b
    863a:	e5f8837b          	.insn	4, 0xe5f8837b
    863e:	ab95                	.insn	2, 0xab95
    8640:	0308                	.insn	2, 0x0308
    8642:	5d65d727          	.insn	4, 0x5d65d727
    8646:	1a41                	.insn	2, 0x1a41
    8648:	8a044913          	xor	s2,s0,-1888
    864c:	1848                	.insn	2, 0x1848
    864e:	858515c3          	.insn	4, 0x858515c3
    8652:	84dd                	.insn	2, 0x84dd
    8654:	a4b1                	.insn	2, 0xa4b1
    8656:	fbb9                	.insn	2, 0xfbb9
    8658:	53f8                	.insn	2, 0x53f8
    865a:	a4dd0eb7          	lui	t4,0xa4dd0
    865e:	5355                	.insn	2, 0x5355
    8660:	5814                	.insn	2, 0x5814
    8662:	f2ea                	.insn	2, 0xf2ea
    8664:	42c7288f          	.insn	4, 0x42c7288f
    8668:	db65                	.insn	2, 0xdb65
    866a:	6e2aac33          	.insn	4, 0x6e2aac33
    866e:	3238                	.insn	2, 0x3238
    8670:	6d0a                	.insn	2, 0x6d0a
    8672:	0e38                	.insn	2, 0x0e38
    8674:	94f2                	.insn	2, 0x94f2
    8676:	cf139eaf          	.insn	4, 0xcf139eaf
    867a:	e871                	.insn	2, 0xe871
    867c:	8bf9e22f          	.insn	4, 0x8bf9e22f
    8680:	bd52                	.insn	2, 0xbd52
    8682:	807f 8e32 700a 307a 	.insn	10, 0xefd7307a700a8e32807f
    868a:	efd7 
    868c:	7dea                	.insn	2, 0x7dea
    868e:	affa                	.insn	2, 0xaffa
    8690:	c94c                	.insn	2, 0xc94c
    8692:	e5a9                	.insn	2, 0xe5a9
    8694:	f4d9                	.insn	2, 0xf4d9
    8696:	8580                	.insn	2, 0x8580
    8698:	fe5e                	.insn	2, 0xfe5e
    869a:	ecee                	.insn	2, 0xecee
    869c:	85cc                	.insn	2, 0x85cc
    869e:	dba5                	.insn	2, 0xdba5
    86a0:	6646                	.insn	2, 0x6646
    86a2:	a4ee                	.insn	2, 0xa4ee
    86a4:	e3f0                	.insn	2, 0xe3f0
    86a6:	b216                	.insn	2, 0xb216
    86a8:	23ce                	.insn	2, 0x23ce
    86aa:	acff 7558 cfdc d3e5 	.insn	14, 0x4c05c6262eb9d3e5cfdc7558acff
    86b2:	2eb9 c626 4c05 
    86b8:	7b90                	.insn	2, 0x7b90
    86ba:	6cb5                	.insn	2, 0x6cb5
    86bc:	826d                	.insn	2, 0x826d
    86be:	24a1cc6f          	jal	s8,24908 <_erodata+0x1b288>
    86c2:	d731                	.insn	2, 0xd731
    86c4:	25c8                	.insn	2, 0x25c8
    86c6:	3bec                	.insn	2, 0x3bec
    86c8:	eeec                	.insn	2, 0xeeec
    86ca:	3fe4                	.insn	2, 0x3fe4
    86cc:	5c2f6fdb          	.insn	4, 0x5c2f6fdb
    86d0:	18f5                	.insn	2, 0x18f5
    86d2:	fd25                	.insn	2, 0xfd25
    86d4:	6d8c                	.insn	2, 0x6d8c
    86d6:	22e4                	.insn	2, 0x22e4
    86d8:	1864                	.insn	2, 0x1864
    86da:	1c079e27          	.insn	4, 0x1c079e27
    86de:	c580                	.insn	2, 0xc580
    86e0:	fbe2                	.insn	2, 0xfbe2
    86e2:	49f9                	.insn	2, 0x49f9
    86e4:	51d6                	.insn	2, 0x51d6
    86e6:	3824                	.insn	2, 0x3824
    86e8:	93e291f7          	.insn	4, 0x93e291f7
    86ec:	d3bc                	.insn	2, 0xd3bc
    86ee:	7cb2                	.insn	2, 0x7cb2
    86f0:	edd5                	.insn	2, 0xedd5
    86f2:	c5d5                	.insn	2, 0xc5d5
    86f4:	2864                	.insn	2, 0x2864
    86f6:	7b15                	.insn	2, 0x7b15
    86f8:	02ea                	.insn	2, 0x02ea
    86fa:	547d                	.insn	2, 0x547d
    86fc:	18d9                	.insn	2, 0x18d9
    86fe:	1b913c77          	.insn	4, 0x1b913c77
    8702:	b570                	.insn	2, 0xb570
    8704:	18be                	.insn	2, 0x18be
    8706:	95f4                	.insn	2, 0x95f4
    8708:	121a                	.insn	2, 0x121a
    870a:	ad2e57a3          	.insn	4, 0xad2e57a3
    870e:	b215                	.insn	2, 0xb215
    8710:	69a2                	.insn	2, 0x69a2
    8712:	78c4                	.insn	2, 0x78c4
    8714:	3f835067          	.insn	4, 0x3f835067
    8718:	b0adfb83          	.insn	4, 0xb0adfb83
    871c:	d939                	.insn	2, 0xd939
    871e:	5d5e                	.insn	2, 0x5d5e
    8720:	20a8                	.insn	2, 0x20a8
    8722:	9bb2                	.insn	2, 0x9bb2
    8724:	c6a0                	.insn	2, 0xc6a0
    8726:	f738                	.insn	2, 0xf738
    8728:	3bbc                	.insn	2, 0x3bbc
    872a:	5248                	.insn	2, 0x5248
    872c:	78b5                	.insn	2, 0x78b5
    872e:	a53b011b          	.insn	4, 0xa53b011b
    8732:	bcfc                	.insn	2, 0xbcfc
    8734:	f8b1abbb          	.insn	4, 0xf8b1abbb
    8738:	4d60                	.insn	2, 0x4d60
    873a:	5fdf 9e1a ba44      	.insn	6, 0xba449e1a5fdf
    8740:	79b630c7          	fmsub.s	ft1,fa2,fs11,fa5,rup
    8744:	b92c                	.insn	2, 0xb92c
    8746:	8c2645a3          	.insn	4, 0x8c2645a3
    874a:	9fb76b63          	bltu	a4,s11,7940 <Hacl_P256_ecdsa_sign_p256_without_hash+0x1a38>
    874e:	9d800187          	.insn	4, 0x9d800187
    8752:	f285                	.insn	2, 0xf285
    8754:	09c4                	.insn	2, 0x09c4
    8756:	91cc965b          	.insn	4, 0x91cc965b
    875a:	94a4                	.insn	2, 0x94a4
    875c:	4ae4                	.insn	2, 0x4ae4
    875e:	d340                	.insn	2, 0xd340
    8760:	e545                	.insn	2, 0xe545
    8762:	ed76                	.insn	2, 0xed76
    8764:	0a22                	.insn	2, 0x0a22
    8766:	af51d1d3          	.insn	4, 0xaf51d1d3
    876a:	1aed                	.insn	2, 0x1aed
    876c:	b262                	.insn	2, 0xb262
    876e:	a1c0                	.insn	2, 0xa1c0
    8770:	ee6dc9db          	.insn	4, 0xee6dc9db
    8774:	c64d                	.insn	2, 0xc64d
    8776:	55521667          	.insn	4, 0x55521667
    877a:	22e8                	.insn	2, 0x22e8
    877c:	6aed                	.insn	2, 0x6aed
    877e:	323a                	.insn	2, 0x323a
    8780:	e0322283          	lw	t0,-509(tp) # fffffe03 <_ebss+0xdfffef47>
    8784:	0a78                	.insn	2, 0x0a78
    8786:	81cc                	.insn	2, 0x81cc
    8788:	80c2                	.insn	2, 0x80c2
    878a:	3e7e810f          	.insn	4, 0x3e7e810f
    878e:	c288                	.insn	2, 0xc288
    8790:	4fd07807          	.insn	4, 0x4fd07807
    8794:	608c                	.insn	2, 0x608c
    8796:	b655                	.insn	2, 0xb655
    8798:	2895                	.insn	2, 0x2895
    879a:	fd721e3b          	.insn	4, 0xfd721e3b
    879e:	3219                	.insn	2, 0x3219
    87a0:	826182fb          	.insn	4, 0x826182fb
    87a4:	0314                	.insn	2, 0x0314
    87a6:	742c                	.insn	2, 0x742c
    87a8:	fc7e                	.insn	2, 0xfc7e
    87aa:	ad40                	.insn	2, 0xad40
    87ac:	afd5b13b          	.insn	4, 0xafd5b13b
    87b0:	b195547f 10bc6f29 	.insn	20, 0x7f215f8fb5e4633e1e63c10010bc6f29b195547f
    87b8:	1e63c100 b5e4633e 
    87c0:	7f215f8f 
    87c4:	3c5eb527          	fsd	ft5,970(t4) # a4dd03ca <_ebss+0x84dcf50e>
    87c8:	10e06ecb          	fnmsub.s	ft9,ft0,fa4,ft2,unknown
    87cc:	3669                	.insn	2, 0x3669
    87ce:	12a6d103          	lhu	sp,298(a3)
    87d2:	1eb6                	.insn	2, 0x1eb6
    87d4:	ea55                	.insn	2, 0xea55
    87d6:	e413bd47          	.insn	4, 0xe413bd47
    87da:	55c8                	.insn	2, 0x55c8
    87dc:	95c121cb          	.insn	4, 0x95c121cb
    87e0:	c648                	.insn	2, 0xc648
    87e2:	f41989f7          	.insn	4, 0xf41989f7
    87e6:	b1c706eb          	.insn	4, 0xb1c706eb
    87ea:	e956                	.insn	2, 0xe956
    87ec:	fd71                	.insn	2, 0xfd71
    87ee:	b5d1f8b7          	lui	a7,0xb5d1f
    87f2:	4388                	.insn	2, 0x4388
    87f4:	8521                	.insn	2, 0x8521
    87f6:	d1de                	.insn	2, 0xd1de
    87f8:	e2b2                	.insn	2, 0xe2b2
    87fa:	1dc1                	.insn	2, 0x1dc1
    87fc:	60b6                	.insn	2, 0x60b6
    87fe:	5715                	.insn	2, 0x5715
    8800:	dbd2                	.insn	2, 0xdbd2
    8802:	5c10                	.insn	2, 0x5c10
    8804:	6ad1                	.insn	2, 0x6ad1
    8806:	64a0                	.insn	2, 0x64a0
    8808:	74ec                	.insn	2, 0x74ec
    880a:	7a25                	.insn	2, 0x7a25
    880c:	c1d4                	.insn	2, 0xc1d4
    880e:	d308                	.insn	2, 0xd308
    8810:	28ad                	.insn	2, 0x28ad
    8812:	ad09                	.insn	2, 0xad09
    8814:	4f64                	.insn	2, 0x4f64
    8816:	2efc                	.insn	2, 0x2efc
    8818:	c5f1                	.insn	2, 0xc5f1
    881a:	ac20                	.insn	2, 0xac20
    881c:	f32c5a83          	lhu	s5,-206(s8) # 4bb7242e <_ebss+0x2bb71572>
    8820:	0b9f 25b5 0fb9      	.insn	6, 0x0fb925b50b9f
    8826:	2929                	.insn	2, 0x2929
    8828:	b11c                	.insn	2, 0xb11c
    882a:	36339197          	auipc	gp,0x36339
    882e:	158e                	.insn	2, 0x158e
    8830:	4cef08ef          	jal	a7,f8cfe <_erodata+0xef67e>
    8834:	877d                	.insn	2, 0x877d
    8836:	c2a450c7          	fmsub.d	ft1,fs0,fa0,fs8,unknown
    883a:	0132                	.insn	2, 0x0132
    883c:	98f1                	.insn	2, 0x98f1
    883e:	4561                	.insn	2, 0x4561
    8840:	3cc4                	.insn	2, 0x3cc4
    8842:	2678ed47          	.insn	4, 0x2678ed47
    8846:	8048804f          	fnmadd.s	ft0,fa7,ft4,fa6,rne
    884a:	46bc                	.insn	2, 0x46bc
    884c:	6059                	.insn	2, 0x6059
    884e:	14f0                	.insn	2, 0x14f0
    8850:	8331                	.insn	2, 0x8331
    8852:	79fa                	.insn	2, 0x79fa
    8854:	046d                	.insn	2, 0x046d
    8856:	4809                	.insn	2, 0x4809
    8858:	0fe6                	.insn	2, 0x0fe6
    885a:	bd2a                	.insn	2, 0xbd2a
    885c:	7a06                	.insn	2, 0x7a06
    885e:	d9c8                	.insn	2, 0xd9c8
    8860:	2e26                	.insn	2, 0x2e26
    8862:	de02                	.insn	2, 0xde02
    8864:	40a9                	.insn	2, 0x40a9
    8866:	b429                	.insn	2, 0xb429
    8868:	060a                	.insn	2, 0x060a
    886a:	6b38                	.insn	2, 0x6b38
    886c:	5ab0                	.insn	2, 0x5ab0
    886e:	4761                	.insn	2, 0x4761
    8870:	44a1                	.insn	2, 0x44a1
    8872:	239698a7          	.insn	4, 0x239698a7
    8876:	6af0                	.insn	2, 0x6af0
    8878:	b0fdc8ef          	jal	a7,fffe5386 <_ebss+0xdffe44ca>
    887c:	08108e27          	.insn	4, 0x08108e27
    8880:	0942                	.insn	2, 0x0942
    8882:	9266                	.insn	2, 0x9266
    8884:	f241                	.insn	2, 0xf241
    8886:	c0b6                	.insn	2, 0xc0b6
    8888:	9f6f8cf7          	.insn	4, 0x9f6f8cf7
    888c:	a3ad                	.insn	2, 0xa3ad
    888e:	bc28574b          	.insn	4, 0xbc28574b
    8892:	5ed9                	.insn	2, 0x5ed9
    8894:	783ab113          	sltiu	sp,s5,1923
    8898:	da3b7e3b          	.insn	4, 0xda3b7e3b
    889c:	d05e                	.insn	2, 0xd05e
    889e:	ec62                	.insn	2, 0xec62
    88a0:	85a431f3          	csrrc	gp,0x85a,s0
    88a4:	3325                	.insn	2, 0x3325
    88a6:	4842                	.insn	2, 0x4842
    88a8:	5ee8                	.insn	2, 0x5ee8
    88aa:	0d9c                	.insn	2, 0x0d9c
    88ac:	6ed6                	.insn	2, 0x6ed6
    88ae:	ae96                	.insn	2, 0xae96
    88b0:	cdee                	.insn	2, 0xcdee
    88b2:	d91d                	.insn	2, 0xd91d
    88b4:	816a                	.insn	2, 0x816a
    88b6:	f8e4                	.insn	2, 0xf8e4
    88b8:	7c14                	.insn	2, 0x7c14
    88ba:	399f746f          	jal	s0,100452 <_erodata+0xf6dd2>
    88be:	41fad1d3          	.insn	4, 0x41fad1d3
    88c2:	e992                	.insn	2, 0xe992
    88c4:	a7e4                	.insn	2, 0xa7e4
    88c6:	f7b1                	.insn	2, 0xf7b1
    88c8:	e821                	.insn	2, 0xe821
    88ca:	dfc1                	.insn	2, 0xdfc1
    88cc:	416c                	.insn	2, 0x416c
    88ce:	3d72                	.insn	2, 0x3d72
    88d0:	1e08                	.insn	2, 0x1e08
    88d2:	2b32                	.insn	2, 0x2b32
    88d4:	8fb5                	.insn	2, 0x8fb5
    88d6:	251a                	.insn	2, 0x251a
    88d8:	a3ad                	.insn	2, 0xa3ad
    88da:	c8c6                	.insn	2, 0xc8c6
    88dc:	e5c8                	.insn	2, 0xe5c8
    88de:	c2c5                	.insn	2, 0xc2c5
    88e0:	b181                	.insn	2, 0xb181
    88e2:	d814                	.insn	2, 0xd814
    88e4:	f422                	.insn	2, 0xf422
    88e6:	97ce                	.insn	2, 0x97ce
    88e8:	815eda7f d2f9903e 	.insn	20, 0x1e80525d4c47dbb81efe5b1fd2f9903e815eda7f
    88f0:	1efe5b1f 4c47dbb8 
    88f8:	1e80525d 
    88fc:	ea5a                	.insn	2, 0xea5a
    88fe:	2281                	.insn	2, 0x2281
    8900:	8b52                	.insn	2, 0x8b52
    8902:	66c2                	.insn	2, 0x66c2
    8904:	3e8f36e7          	.insn	4, 0x3e8f36e7
    8908:	a281786b          	.insn	4, 0xa281786b
    890c:	9fe8                	.insn	2, 0x9fe8
    890e:	c0bc                	.insn	2, 0xc0bc
    8910:	b32e                	.insn	2, 0xb32e
    8912:	49f6                	.insn	2, 0x49f6
    8914:	e31a                	.insn	2, 0xe31a
    8916:	d0d8                	.insn	2, 0xd0d8
    8918:	16a6                	.insn	2, 0x16a6
    891a:	8cd0                	.insn	2, 0x8cd0
    891c:	e7de                	.insn	2, 0xe7de
    891e:	8628                	.insn	2, 0x8628
    8920:	ed42                	.insn	2, 0xed42
    8922:	8d02                	.insn	2, 0x8d02
    8924:	11da                	.insn	2, 0x11da
    8926:	58e9                	.insn	2, 0x58e9
    8928:	44e3f523          	.insn	4, 0x44e3f523
    892c:	4f10                	.insn	2, 0x4f10
    892e:	2f20                	.insn	2, 0x2f20
    8930:	3dd4                	.insn	2, 0x3dd4
    8932:	eff7513b          	.insn	4, 0xeff7513b
    8936:	8830                	.insn	2, 0x8830
    8938:	2a9d                	.insn	2, 0x2a9d
    893a:	4f37b4cf          	.insn	4, 0x4f37b4cf
    893e:	2536                	.insn	2, 0x2536
    8940:	810a                	.insn	2, 0x810a
    8942:	d2ed                	.insn	2, 0xd2ed
    8944:	07c4                	.insn	2, 0x07c4
    8946:	3ed7ff73          	csrrc	t5,pmpaddr61,15
    894a:	cf3d                	.insn	2, 0xcf3d
    894c:	6546                	.insn	2, 0x6546
    894e:	6af5                	.insn	2, 0x6af5
    8950:	7b52                	.insn	2, 0x7b52
    8952:	caa0                	.insn	2, 0xcaa0
    8954:	0388                	.insn	2, 0x0388
    8956:	c551                	.insn	2, 0xc551
    8958:	f698cfef          	jal	t6,fff958c0 <_ebss+0xdff94a04>
    895c:	3379                	.insn	2, 0x3379
    895e:	32c6                	.insn	2, 0x32c6
    8960:	9136                	.insn	2, 0x9136
    8962:	89c1d42f          	.insn	4, 0x89c1d42f
    8966:	d5c8                	.insn	2, 0xd5c8
    8968:	f55dce87          	.insn	4, 0xf55dce87
    896c:	8ce36a23          	.insn	4, 0x8ce36a23
    8970:	f3c1580b          	.insn	4, 0xf3c1580b
    8974:	5009                	.insn	2, 0x5009
    8976:	97a4                	.insn	2, 0x97a4
    8978:	ad08                	.insn	2, 0xad08
    897a:	7ce1                	.insn	2, 0x7ce1
    897c:	ca7f eaa2 9197 2626 	.insn	18, 0xfd3e54039695e5991d9226269197eaa2ca7f
    8984:	1d92 e599 9695 5403 
    898c:	fd3e 
    898e:	98c0                	.insn	2, 0x98c0
    8990:	1dd12bbf 7812f3dd 	.insn	8, 0x7812f3dd1dd12bbf
    8998:	aff0                	.insn	2, 0xaff0
    899a:	8db9                	.insn	2, 0x8db9
    899c:	e5e5                	.insn	2, 0xe5e5
    899e:	c07e6d0b          	.insn	4, 0xc07e6d0b
    89a2:	ad3e                	.insn	2, 0xad3e
    89a4:	642c                	.insn	2, 0x642c
    89a6:	b93a4dbf 18c37b5c 	.insn	8, 0x18c37b5cb93a4dbf
    89ae:	b887230b          	.insn	4, 0xb887230b
    89b2:	24a9                	.insn	2, 0x24a9
    89b4:	5059                	.insn	2, 0x5059
    89b6:	2a94c7eb          	.insn	4, 0x2a94c7eb
    89ba:	94585bbf fe09ffcc 	.insn	8, 0xfe09ffcc94585bbf
    89c2:	e529                	.insn	2, 0xe529
    89c4:	2e11                	.insn	2, 0x2e11
    89c6:	8995                	.insn	2, 0x8995
    89c8:	b74c                	.insn	2, 0xb74c
    89ca:	1614                	.insn	2, 0x1614
    89cc:	2764                	.insn	2, 0x2764
    89ce:	45edea7b          	.insn	4, 0x45edea7b
    89d2:	24be                	.insn	2, 0x24be
    89d4:	5236                	.insn	2, 0x5236
    89d6:	67df edbd 1b68      	.insn	6, 0x1b68edbd67df
    89dc:	9a1a                	.insn	2, 0x9a1a
    89de:	4548d8fb          	.insn	4, 0x4548d8fb
    89e2:	0736                	.insn	2, 0x0736
    89e4:	b94d                	.insn	2, 0xb94d
    89e6:	75e4                	.insn	2, 0x75e4
    89e8:	cffc                	.insn	2, 0xcffc
    89ea:	492e14af          	.insn	4, 0x492e14af
    89ee:	513e4437          	lui	s0,0x513e4
    89f2:	46d5                	.insn	2, 0x46d5
    89f4:	a49c                	.insn	2, 0xa49c
    89f6:	e456                	.insn	2, 0xe456
    89f8:	b4f9                	.insn	2, 0xb4f9
    89fa:	2c91                	.insn	2, 0x2c91
    89fc:	c8b3bad3          	.insn	4, 0xc8b3bad3
    8a00:	fbc95cef          	jal	s9,fff9e1bc <_ebss+0xdff9d300>
    8a04:	96d2                	.insn	2, 0x96d2
    8a06:	cdea                	.insn	2, 0xcdea
    8a08:	da72                	.insn	2, 0xda72
    8a0a:	73bb3ce3          	.insn	4, 0x73bb3ce3
    8a0e:	c418                	.insn	2, 0xc418
    8a10:	5fe9                	.insn	2, 0x5fe9
    8a12:	523795e3          	bne	a5,gp,973c <_erodata+0xbc>
    8a16:	d60c                	.insn	2, 0xd60c
    8a18:	a1b4                	.insn	2, 0xa1b4
    8a1a:	cbc9                	.insn	2, 0xcbc9
    8a1c:	3c32                	.insn	2, 0x3c32
    8a1e:	b3754bc7          	fmsub.d	fs7,fa0,fs7,fs6,rmm
    8a22:	f6fbc4ef          	jal	s1,fffc5990 <_ebss+0xdffc4ad4>
    8a26:	df3a                	.insn	2, 0xdf3a
    8a28:	6878                	.insn	2, 0x6878
    8a2a:	79089fe7          	.insn	4, 0x79089fe7
    8a2e:	005f 199e 770f      	.insn	6, 0x770f199e005f
    8a34:	2f44                	.insn	2, 0x2f44
    8a36:	4dc4                	.insn	2, 0x4dc4
    8a38:	0011                	.insn	2, 0x0011
    8a3a:	1fc6                	.insn	2, 0x1fc6
    8a3c:	e3d8                	.insn	2, 0xe3d8
    8a3e:	2e61                	.insn	2, 0x2e61
    8a40:	a5d2                	.insn	2, 0xa5d2
    8a42:	8280                	.insn	2, 0x8280
    8a44:	05f8                	.insn	2, 0x05f8
    8a46:	1644                	.insn	2, 0x1644
    8a48:	c31e                	.insn	2, 0xc31e
    8a4a:	18a6                	.insn	2, 0x18a6
    8a4c:	48c5                	.insn	2, 0x48c5
    8a4e:	8665                	.insn	2, 0x8665
    8a50:	73321dab          	.insn	4, 0x73321dab
    8a54:	10d6422b          	.insn	4, 0x10d6422b
    8a58:	d874                	.insn	2, 0xd874
    8a5a:	dbee                	.insn	2, 0xdbee
    8a5c:	5e21fb27          	.insn	4, 0x5e21fb27
    8a60:	d7ec                	.insn	2, 0xd7ec
    8a62:	72ae                	.insn	2, 0x72ae
    8a64:	d759                	.insn	2, 0xd759
    8a66:	d5109b63          	bne	ra,a7,7fbc <precomp_basepoint_table_w4+0x13c>
    8a6a:	0fa6                	.insn	2, 0x0fa6
    8a6c:	c37b69fb          	.insn	4, 0xc37b69fb
    8a70:	5ffe                	.insn	2, 0x5ffe
    8a72:	96e1                	.insn	2, 0x96e1
    8a74:	a8e9                	.insn	2, 0xa8e9
    8a76:	fd28f0cf          	.insn	4, 0xfd28f0cf
    8a7a:	a5c4                	.insn	2, 0xa5c4
    8a7c:	3e78                	.insn	2, 0x3e78
    8a7e:	          	fnmadd.s	fs10,ft0,ft0,ft0,unknown

00008a80 <precomp_g_pow2_128_table_w4>:
	...
    8aa0:	0001                	.insn	2, 0x0001
	...
    8aaa:	0000                	.insn	2, 0x
    8aac:	ffff                	.insn	2, 0xffff
    8aae:	ffff                	.insn	2, 0xffff
    8ab0:	ffff                	.insn	2, 0xffff
    8ab2:	ffff                	.insn	2, 0xffff
    8ab4:	ffff                	.insn	2, 0xffff
    8ab6:	ffff                	.insn	2, 0xffff
    8ab8:	fffe                	.insn	2, 0xfffe
    8aba:	ffff                	.insn	2, 0xffff
	...
    8ae0:	c0ce                	.insn	2, 0xc0ce
    8ae2:	e619                	.insn	2, 0xe619
    8ae4:	06bd                	.insn	2, 0x06bd
    8ae6:	cae2                	.insn	2, 0xcae2
    8ae8:	5e11                	.insn	2, 0x5e11
    8aea:	df2c                	.insn	2, 0xdf2c
    8aec:	df51                	.insn	2, 0xdf51
    8aee:	8cd1c117          	auipc	sp,0x8cd1c
    8af2:	5fe6                	.insn	2, 0x5fe6
    8af4:	837c                	.insn	2, 0x837c
    8af6:	d102                	.insn	2, 0xd102
    8af8:	510d                	.insn	2, 0x510d
    8afa:	3e38                	.insn	2, 0x3e38
    8afc:	f532d177          	.insn	4, 0xf532d177
    8b00:	eebe                	.insn	2, 0xeebe
    8b02:	e56c                	.insn	2, 0xe56c
    8b04:	95575a67          	.insn	4, 0x95575a67
    8b08:	964d                	.insn	2, 0x964d
    8b0a:	6262                	.insn	2, 0x6262
    8b0c:	d6a5eb8b          	.insn	4, 0xd6a5eb8b
    8b10:	9632                	.insn	2, 0x9632
    8b12:	087a                	.insn	2, 0x087a
    8b14:	48d1                	.insn	2, 0x48d1
    8b16:	d004                	.insn	2, 0xd004
    8b18:	2c5bed7b          	.insn	4, 0x2c5bed7b
    8b1c:	916a                	.insn	2, 0x916a
    8b1e:	c735                	.insn	2, 0xc735
    8b20:	c43d                	.insn	2, 0xc43d
    8b22:	a740                	.insn	2, 0xa740
    8b24:	73df c66d 245a      	.insn	6, 0x245ac66d73df
    8b2a:	2edc                	.insn	2, 0x2edc
    8b2c:	a92c                	.insn	2, 0xa92c
    8b2e:	b829                	.insn	2, 0xb829
    8b30:	e0ad                	.insn	2, 0xe0ad
    8b32:	bcbf21eb          	.insn	4, 0xbcbf21eb
    8b36:	b9b2                	.insn	2, 0xb9b2
    8b38:	13c35383          	lhu	t2,316(t1)
    8b3c:	98be                	.insn	2, 0x98be
    8b3e:	e26a788b          	.insn	4, 0xe26a788b
    8b42:	87b2                	.insn	2, 0x87b2
    8b44:	3fdf f1f4 f4b0      	.insn	6, 0xf4b0f1f43fdf
    8b4a:	bb1e                	.insn	2, 0xbb1e
    8b4c:	234c                	.insn	2, 0x234c
    8b4e:	12d1                	.insn	2, 0x12d1
    8b50:	4d36                	.insn	2, 0x4d36
    8b52:	ed44                	.insn	2, 0xed44
    8b54:	ab1f 68d7 cc92      	.insn	6, 0xcc9268d7ab1f
    8b5a:	f62a764f          	.insn	4, 0xf62a764f
    8b5e:	9d94                	.insn	2, 0x9d94
    8b60:	0f8e6437          	lui	s0,0xf8e6
    8b64:	de2d                	.insn	2, 0xde2d
    8b66:	07d5                	.insn	2, 0x07d5
    8b68:	9f30                	.insn	2, 0x9f30
    8b6a:	1289                	.insn	2, 0x1289
    8b6c:	6e7e                	.insn	2, 0x6e7e
    8b6e:	757e                	.insn	2, 0x757e
    8b70:	75b08b57          	.insn	4, 0x75b08b57
    8b74:	34dc                	.insn	2, 0x34dc
    8b76:	953a                	.insn	2, 0x953a
    8b78:	f5da9b4f          	.insn	4, 0xf5da9b4f
    8b7c:	d049                	.insn	2, 0xd049
    8b7e:	9e49                	.insn	2, 0x9e49
    8b80:	c0fc                	.insn	2, 0xc0fc
    8b82:	a552                	.insn	2, 0xa552
    8b84:	a709                	.insn	2, 0xa709
    8b86:	bf66                	.insn	2, 0xbf66
    8b88:	2730e6f3          	csrrs	a3,0x273,1
    8b8c:	eb64                	.insn	2, 0xeb64
    8b8e:	7238                	.insn	2, 0x7238
    8b90:	5fd0                	.insn	2, 0x5fd0
    8b92:	e639                	.insn	2, 0xe639
    8b94:	c44a                	.insn	2, 0xc44a
    8b96:	ac4c                	.insn	2, 0xac4c
    8b98:	3bf8                	.insn	2, 0x3bf8
    8b9a:	3134                	.insn	2, 0x3134
    8b9c:	ff8c51eb          	.insn	4, 0xff8c51eb
    8ba0:	cf46                	.insn	2, 0xcf46
    8ba2:	84d1                	.insn	2, 0x84d1
    8ba4:	d7377c2b          	.insn	4, 0xd7377c2b
    8ba8:	a47f024b          	.insn	4, 0xa47f024b
    8bac:	75ae                	.insn	2, 0x75ae
    8bae:	503a                	.insn	2, 0x503a
    8bb0:	00c6                	.insn	2, 0x00c6
    8bb2:	82d5                	.insn	2, 0x82d5
    8bb4:	d4e09973          	csrrw	s2,0xd4e,ra
    8bb8:	5f9d0a8f          	.insn	4, 0x5f9d0a8f
    8bbc:	ec16                	.insn	2, 0xec16
    8bbe:	de94                	.insn	2, 0xde94
    8bc0:	996a                	.insn	2, 0x996a
    8bc2:	9398                	.insn	2, 0x9398
    8bc4:	850e6b93          	or	s7,t3,-1968
    8bc8:	b4f50d67          	jalr	s10,-1201(a0)
    8bcc:	86a4                	.insn	2, 0x86a4
    8bce:	42ed                	.insn	2, 0x42ed
    8bd0:	6c74                	.insn	2, 0x6c74
    8bd2:	016e                	.insn	2, 0x016e
    8bd4:	1319c7f7          	.insn	4, 0x1319c7f7
    8bd8:	fd6e                	.insn	2, 0xfd6e
    8bda:	a9256deb          	.insn	4, 0xa9256deb
    8bde:	4f3a0f8b          	.insn	4, 0x4f3a0f8b
    8be2:	05d2                	.insn	2, 0x05d2
    8be4:	cd4c                	.insn	2, 0xcd4c
    8be6:	1802                	.insn	2, 0x1802
    8be8:	b2fc                	.insn	2, 0xb2fc
    8bea:	d7c1                	.insn	2, 0xd7c1
    8bec:	47fd72c7          	.insn	4, 0x47fd72c7
    8bf0:	73320ccb          	fnmsub.d	fs9,ft4,fs3,fa4,rne
    8bf4:	e1675d9b          	.insn	4, 0xe1675d9b
    8bf8:	9cf02577          	.insn	4, 0x9cf02577
    8bfc:	eb9f 2a24 ed2e      	.insn	6, 0xed2e2a24eb9f
    8c02:	81ec                	.insn	2, 0x81ec
    8c04:	186dba0b          	.insn	4, 0x186dba0b
    8c08:	75e1                	.insn	2, 0x75e1
    8c0a:	8179                	.insn	2, 0x8179
    8c0c:	d489                	.insn	2, 0xd489
    8c0e:	025c                	.insn	2, 0x025c
    8c10:	a07dd20b          	.insn	4, 0xa07dd20b
    8c14:	d142                	.insn	2, 0xd142
    8c16:	6fe5                	.insn	2, 0x6fe5
    8c18:	2bc1                	.insn	2, 0x2bc1
    8c1a:	6148                	.insn	2, 0x6148
    8c1c:	7676                	.insn	2, 0x7676
    8c1e:	42f5                	.insn	2, 0x42f5
    8c20:	b268                	.insn	2, 0xb268
    8c22:	c370                	.insn	2, 0xc370
    8c24:	e266                	.insn	2, 0xe266
    8c26:	e204                	.insn	2, 0xe204
    8c28:	efdf989b          	.insn	4, 0xefdf989b
    8c2c:	ba78                	.insn	2, 0xba78
    8c2e:	a5c5                	.insn	2, 0xa5c5
    8c30:	a648                	.insn	2, 0xa648
    8c32:	c5cd                	.insn	2, 0xc5cd
    8c34:	34ba                	.insn	2, 0x34ba
    8c36:	c3a2                	.insn	2, 0xc3a2
    8c38:	f851a7ef          	jal	a5,fff23bbc <_ebss+0xdff22d00>
    8c3c:	1665168b          	.insn	4, 0x1665168b
    8c40:	d2a45dd3          	.insn	4, 0xd2a45dd3
    8c44:	1555                	.insn	2, 0x1555
    8c46:	c6b0                	.insn	2, 0xc6b0
    8c48:	c8dd                	.insn	2, 0xc8dd
    8c4a:	8da9                	.insn	2, 0x8da9
    8c4c:	51e4                	.insn	2, 0x51e4
    8c4e:	f1a0                	.insn	2, 0xf1a0
    8c50:	8a11                	.insn	2, 0x8a11
    8c52:	6036                	.insn	2, 0x6036
    8c54:	af3d                	.insn	2, 0xaf3d
    8c56:	7094                	.insn	2, 0x7094
    8c58:	eae0                	.insn	2, 0xeae0
    8c5a:	a0ae                	.insn	2, 0xa0ae
    8c5c:	b94a                	.insn	2, 0xb94a
    8c5e:	1cb9                	.insn	2, 0x1cb9
    8c60:	c75a5597          	auipc	a1,0xc75a5
    8c64:	792d                	.insn	2, 0x792d
    8c66:	8bed                	.insn	2, 0x8bed
    8c68:	6d4e                	.insn	2, 0x6d4e
    8c6a:	3304324f          	fnmadd.d	ft4,fs0,fa6,ft6,rup
    8c6e:	3218                	.insn	2, 0x3218
    8c70:	53f9                	.insn	2, 0x53f9
    8c72:	8886                	.insn	2, 0x8886
    8c74:	54cca243          	.insn	4, 0x54cca243
    8c78:	e431                	.insn	2, 0xe431
    8c7a:	8bf8                	.insn	2, 0x8bf8
    8c7c:	f169                	.insn	2, 0xf169
    8c7e:	8792                	.insn	2, 0x8792
    8c80:	4d6e                	.insn	2, 0x4d6e
    8c82:	761f 451d a63a      	.insn	6, 0xa63a451d761f
    8c88:	93d5                	.insn	2, 0x93d5
    8c8a:	1001                	.insn	2, 0x1001
    8c8c:	09d0                	.insn	2, 0x09d0
    8c8e:	fb08                	.insn	2, 0xfb08
    8c90:	415f 20a0 b6f5      	.insn	6, 0xb6f520a0415f
    8c96:	0029                	.insn	2, 0x0029
    8c98:	1d6e                	.insn	2, 0x1d6e
    8c9a:	c761                	.insn	2, 0xc761
    8c9c:	0922                	.insn	2, 0x0922
    8c9e:	9a30                	.insn	2, 0x9a30
    8ca0:	a1812d4b          	fnmsub.s	fs10,ft2,fs8,fs4,rdn
    8ca4:	9e3d                	.insn	2, 0x9e3d
    8ca6:	129d                	.insn	2, 0x129d
    8ca8:	180e                	.insn	2, 0x180e
    8caa:	74bd                	.insn	2, 0x74bd
    8cac:	2a066ebb          	.insn	4, 0x2a066ebb
    8cb0:	e42e                	.insn	2, 0xe42e
    8cb2:	5e9f b8b7 90de      	.insn	6, 0x90deb8b75e9f
    8cb8:	9c2d                	.insn	2, 0x9c2d
    8cba:	ab81                	.insn	2, 0xab81
    8cbc:	1256                	.insn	2, 0x1256
    8cbe:	b0ad                	.insn	2, 0xb0ad
    8cc0:	052d                	.insn	2, 0x052d
    8cc2:	bb99                	.insn	2, 0xbb99
    8cc4:	1321                	.insn	2, 0x1321
    8cc6:	9fee                	.insn	2, 0x9fee
    8cc8:	eb72                	.insn	2, 0xeb72
    8cca:	426b098f          	.insn	4, 0x426b098f
    8cce:	3ec6                	.insn	2, 0x3ec6
    8cd0:	a996                	.insn	2, 0xa996
    8cd2:	74df 0b01 1c27      	.insn	6, 0x1c270b0174df
    8cd8:	1b7a                	.insn	2, 0x1b7a
    8cda:	7e9c                	.insn	2, 0x7e9c
    8cdc:	6f9e                	.insn	2, 0x6f9e
    8cde:	ed12                	.insn	2, 0xed12
    8ce0:	23ef148f          	.insn	4, 0x23ef148f
    8ce4:	7c24                	.insn	2, 0x7c24
    8ce6:	54b5                	.insn	2, 0x54b5
    8ce8:	d5f6                	.insn	2, 0xd5f6
    8cea:	eb3a                	.insn	2, 0xeb3a
    8cec:	4118                	.insn	2, 0x4118
    8cee:	d163ecd7          	.insn	4, 0xd163ecd7
    8cf2:	9812                	.insn	2, 0x9812
    8cf4:	9706                	.insn	2, 0x9706
    8cf6:	9e25                	.insn	2, 0x9e25
    8cf8:	4a4c                	.insn	2, 0x4a4c
    8cfa:	7d7daa1b          	.insn	4, 0x7d7daa1b
    8cfe:	9800                	.insn	2, 0x9800
    8d00:	1e49                	.insn	2, 0x1e49
    8d02:	ed9d                	.insn	2, 0xed9d
    8d04:	6a14                	.insn	2, 0x6a14
    8d06:	7a06                	.insn	2, 0x7a06
    8d08:	7a0a3993          	sltiu	s3,s4,1952
    8d0c:	f14a                	.insn	2, 0xf14a
    8d0e:	c4fc                	.insn	2, 0xc4fc
    8d10:	fe62                	.insn	2, 0xfe62
    8d12:	94f9                	.insn	2, 0x94f9
    8d14:	79b0                	.insn	2, 0x79b0
    8d16:	d231                	.insn	2, 0xd231
    8d18:	5be8770f          	.insn	4, 0x5be8770f
    8d1c:	e8ec                	.insn	2, 0xe8ec
    8d1e:	16f6                	.insn	2, 0x16f6
    8d20:	c8bbe1c7          	fmsub.s	ft3,fs7,fa1,fs9,unknown
    8d24:	6e67b4f7          	.insn	4, 0x6e67b4f7
    8d28:	a6fc                	.insn	2, 0xa6fc
    8d2a:	6ca9                	.insn	2, 0x6ca9
    8d2c:	375cc2cf          	.insn	4, 0x375cc2cf
    8d30:	0adf 2459 80f8      	.insn	6, 0x80f824590adf
    8d36:	9b9aa9b7          	lui	s3,0x9b9aa
    8d3a:	2a7c                	.insn	2, 0x2a7c
    8d3c:	e518                	.insn	2, 0xe518
    8d3e:	ba62                	.insn	2, 0xba62
    8d40:	2a1a                	.insn	2, 0x2a1a
    8d42:	30b3788b          	.insn	4, 0x30b3788b
    8d46:	cd0b2fab          	.insn	4, 0xcd0b2fab
    8d4a:	a55f 7a3a 7504      	.insn	6, 0x75047a3aa55f
    8d50:	0008                	.insn	2, 0x0008
    8d52:	9878                	.insn	2, 0x9878
    8d54:	68a5                	.insn	2, 0x68a5
    8d56:	a85f 2717 033b      	.insn	6, 0x033b2717a85f
    8d5c:	cd34                	.insn	2, 0xcd34
    8d5e:	1fc5                	.insn	2, 0x1fc5
    8d60:	b9eaef4b          	fnmsub.s	ft10,fs5,ft10,fs7,unknown
    8d64:	a06d                	.insn	2, 0xa06d
    8d66:	fe99                	.insn	2, 0xfe99
    8d68:	1208                	.insn	2, 0x1208
    8d6a:	4584                	.insn	2, 0x4584
    8d6c:	655d                	.insn	2, 0x655d
    8d6e:	bb99                	.insn	2, 0xbb99
    8d70:	14ca2b07          	flw	fs6,332(s4) # 869b314c <_ebss+0x669b2290>
    8d74:	b2e0                	.insn	2, 0xb2e0
    8d76:	4858                	.insn	2, 0x4858
    8d78:	3e74e40f          	.insn	4, 0x3e74e40f
    8d7c:	f3e2                	.insn	2, 0xf3e2
    8d7e:	f4b4                	.insn	2, 0xf4b4
    8d80:	54b8                	.insn	2, 0x54b8
    8d82:	45f8                	.insn	2, 0x45f8
    8d84:	9930                	.insn	2, 0x9930
    8d86:	3d22                	.insn	2, 0x3d22
    8d88:	b9f1                	.insn	2, 0xb9f1
    8d8a:	61d5                	.insn	2, 0x61d5
    8d8c:	a880                	.insn	2, 0xa880
    8d8e:	a385                	.insn	2, 0xa385
    8d90:	42303e53          	.insn	4, 0x42303e53
    8d94:	6af6                	.insn	2, 0x6af6
    8d96:	8182                	.insn	2, 0x8182
    8d98:	6df1                	.insn	2, 0x6df1
    8d9a:	04a6852f          	.insn	4, 0x04a6852f
    8d9e:	b284                	.insn	2, 0xb284
    8da0:	ac30                	.insn	2, 0xac30
    8da2:	8eac                	.insn	2, 0x8eac
    8da4:	33958b5b          	.insn	4, 0x33958b5b
    8da8:	655e                	.insn	2, 0x655e
    8daa:	017d                	.insn	2, 0x017d
    8dac:	c93a                	.insn	2, 0xc93a
    8dae:	bba48b23          	sb	s10,-1098(s1)
    8db2:	c388                	.insn	2, 0xc388
    8db4:	33ee                	.insn	2, 0x33ee
    8db6:	9afa                	.insn	2, 0x9afa
    8db8:	6abc                	.insn	2, 0x6abc
    8dba:	a2afdc8b          	.insn	4, 0xa2afdc8b
    8dbe:	d5c8ac6f          	jal	s8,fff9331a <_ebss+0xdff9245e>
    8dc2:	db15                	.insn	2, 0xdb15
    8dc4:	d246                	.insn	2, 0xd246
    8dc6:	4ff0                	.insn	2, 0x4ff0
    8dc8:	a85056a7          	.insn	4, 0xa85056a7
    8dcc:	4392                	.insn	2, 0x4392
    8dce:	7d22                	.insn	2, 0x7d22
    8dd0:	186c                	.insn	2, 0x186c
    8dd2:	df8ea8cf          	.insn	4, 0xdf8ea8cf
    8dd6:	4e84                	.insn	2, 0x4e84
    8dd8:	39c8                	.insn	2, 0x39c8
    8dda:	21db79d7          	.insn	4, 0x21db79d7
    8dde:	9901                	.insn	2, 0x9901
    8de0:	6add                	.insn	2, 0x6add
    8de2:	98b5                	.insn	2, 0x98b5
    8de4:	d5d1                	.insn	2, 0xd5d1
    8de6:	12fd                	.insn	2, 0x12fd
    8de8:	5552                	.insn	2, 0x5552
    8dea:	6c3d                	.insn	2, 0x6c3d
    8dec:	e910                	.insn	2, 0xe910
    8dee:	157cf0ef          	jal	d8744 <_erodata+0xcf0c4>
    8df2:	c719                	.insn	2, 0xc719
    8df4:	6dc0                	.insn	2, 0x6dc0
    8df6:	e3a81a77          	.insn	4, 0xe3a81a77
    8dfa:	d945                	.insn	2, 0xd945
    8dfc:	e3b0                	.insn	2, 0xe3b0
    8dfe:	5704e423          	.insn	4, 0x5704e423
    8e02:	aac6                	.insn	2, 0xaac6
    8e04:	51c94967          	.insn	4, 0x51c94967
    8e08:	40566943          	fmadd.s	fs2,fa2,ft5,fs0,unknown
    8e0c:	ba01                	.insn	2, 0xba01
    8e0e:	c24a                	.insn	2, 0xc24a
    8e10:	1184                	.insn	2, 0x1184
    8e12:	0bf62c67          	.insn	4, 0x0bf62c67
    8e16:	cfe1                	.insn	2, 0xcfe1
    8e18:	6040                	.insn	2, 0x6040
    8e1a:	38ae                	.insn	2, 0x38ae
    8e1c:	21aa                	.insn	2, 0x21aa
    8e1e:	601f fbf0 e41e      	.insn	6, 0xe41efbf0601f
    8e24:	9e3d                	.insn	2, 0x9e3d
    8e26:	6364                	.insn	2, 0x6364
    8e28:	9e81                	.insn	2, 0x9e81
    8e2a:	d0af029b          	.insn	4, 0xd0af029b
    8e2e:	ccdf ba41 15d7      	.insn	6, 0x15d7ba41ccdf
    8e34:	ac94                	.insn	2, 0xac94
    8e36:	af02                	.insn	2, 0xaf02
    8e38:	867af9fb          	.insn	4, 0x867af9fb
    8e3c:	c894                	.insn	2, 0xc894
    8e3e:	f8409133          	.insn	4, 0xf8409133
    8e42:	2ab5                	.insn	2, 0x2ab5
    8e44:	c5b8                	.insn	2, 0xc5b8
    8e46:	7c774287          	.insn	4, 0x7c774287
    8e4a:	75cf62f3          	csrrs	t0,0x75c,30
    8e4e:	48a4                	.insn	2, 0x48a4
    8e50:	4200                	.insn	2, 0x4200
    8e52:	0e24413f 0d346f4b 	.insn	8, 0x0d346f4b0e24413f
    8e5a:	55a4                	.insn	2, 0x55a4
    8e5c:	5e70                	.insn	2, 0x5e70
    8e5e:	63d8                	.insn	2, 0x63d8
    8e60:	e33e                	.insn	2, 0xe33e
    8e62:	c1e8                	.insn	2, 0xc1e8
    8e64:	4c89                	.insn	2, 0x4c89
    8e66:	9f32af3b          	.insn	4, 0x9f32af3b
    8e6a:	d732                	.insn	2, 0xd732
    8e6c:	b40c                	.insn	2, 0xb40c
    8e6e:	95c8                	.insn	2, 0x95c8
    8e70:	839f 2977 2c8d      	.insn	6, 0x2c8d2977839f
    8e76:	9d24                	.insn	2, 0x9d24
    8e78:	c115                	.insn	2, 0xc115
    8e7a:	5c91                	.insn	2, 0x5c91
    8e7c:	2dc1                	.insn	2, 0x2dc1
    8e7e:	e994                	.insn	2, 0xe994
    8e80:	e982                	.insn	2, 0xe982
    8e82:	2e6d                	.insn	2, 0x2e6d
    8e84:	fe48b517          	auipc	a0,0xfe48b
    8e88:	23cc                	.insn	2, 0x23cc
    8e8a:	b8ca                	.insn	2, 0xb8ca
    8e8c:	4d5c                	.insn	2, 0x4d5c
    8e8e:	20c4                	.insn	2, 0x20c4
    8e90:	214a                	.insn	2, 0x214a
    8e92:	0af2                	.insn	2, 0x0af2
    8e94:	0f54                	.insn	2, 0x0f54
    8e96:	4174daa7          	.insn	4, 0x4174daa7
    8e9a:	51fc                	.insn	2, 0x51fc
    8e9c:	d6f0                	.insn	2, 0xd6f0
    8e9e:	4ac7c64f          	fnmadd.d	fa2,fa5,fa2,fs1,rmm
    8ea2:	4a16                	.insn	2, 0x4a16
    8ea4:	7c41                	.insn	2, 0x7c41
    8ea6:	b26c                	.insn	2, 0xb26c
    8ea8:	9eb2                	.insn	2, 0x9eb2
    8eaa:	854d                	.insn	2, 0x854d
    8eac:	e889                	.insn	2, 0xe889
    8eae:	31aa                	.insn	2, 0x31aa
    8eb0:	b562fd13          	and	s10,t0,-1194
    8eb4:	2ea8                	.insn	2, 0x2ea8
    8eb6:	3565                	.insn	2, 0x3565
    8eb8:	c83260c7          	fmsub.s	ft1,ft4,ft3,fs9,unknown
    8ebc:	7809                	.insn	2, 0x7809
    8ebe:	7444                	.insn	2, 0x7444
    8ec0:	0794                	.insn	2, 0x0794
    8ec2:	07d2                	.insn	2, 0x07d2
    8ec4:	a29d                	.insn	2, 0xa29d
    8ec6:	2dff 5ed6 b779 0c9f 	.insn	14, 0x3567d96c0b1d0c9fb7795ed62dff
    8ece:	0b1d d96c 3567 
    8ed4:	1378                	.insn	2, 0x1378
    8ed6:	4034                	.insn	2, 0x4034
    8ed8:	8acd                	.insn	2, 0x8acd
    8eda:	8645                	.insn	2, 0x8645
    8edc:	51fe                	.insn	2, 0x51fe
    8ede:	5be0                	.insn	2, 0x5be0
    8ee0:	63359217          	auipc	tp,0x63359
    8ee4:	5b65                	.insn	2, 0x5b65
    8ee6:	72859e83          	lh	t4,1832(a1) # c75ae388 <_ebss+0xa75ad4cc>
    8eea:	2275                	.insn	2, 0x2275
    8eec:	16d4                	.insn	2, 0x16d4
    8eee:	afed                	.insn	2, 0xafed
    8ef0:	0080                	.insn	2, 0x0080
    8ef2:	aa5e                	.insn	2, 0xaa5e
    8ef4:	3e11                	.insn	2, 0x3e11
    8ef6:	4d78e81b          	.insn	4, 0x4d78e81b
    8efa:	2c35                	.insn	2, 0x2c35
    8efc:	e70b5827          	.insn	4, 0xe70b5827
    8f00:	73a8                	.insn	2, 0x73a8
    8f02:	687e                	.insn	2, 0x687e
    8f04:	7ec8891b          	.insn	4, 0x7ec8891b
    8f08:	540d                	.insn	2, 0x540d
    8f0a:	9d71                	.insn	2, 0x9d71
    8f0c:	028a                	.insn	2, 0x028a
    8f0e:	67c3df2b          	.insn	4, 0x67c3df2b
    8f12:	06be7b77          	.insn	4, 0x06be7b77
    8f16:	9ffc                	.insn	2, 0x9ffc
    8f18:	eb38                	.insn	2, 0xeb38
    8f1a:	6161                	.insn	2, 0x6161
    8f1c:	2488830b          	.insn	4, 0x2488830b
    8f20:	d8ca                	.insn	2, 0xd8ca
    8f22:	9e61                	.insn	2, 0x9e61
    8f24:	a0c2138f          	.insn	4, 0xa0c2138f
    8f28:	9a1e                	.insn	2, 0x9a1e
    8f2a:	6950                	.insn	2, 0x6950
    8f2c:	12d5                	.insn	2, 0x12d5
    8f2e:	7446                	.insn	2, 0x7446
    8f30:	3cf6                	.insn	2, 0x3cf6
    8f32:	a5a0                	.insn	2, 0xa5a0
    8f34:	b5da                	.insn	2, 0xb5da
    8f36:	0ef0                	.insn	2, 0x0ef0
    8f38:	df7c                	.insn	2, 0xdf7c
    8f3a:	905d                	.insn	2, 0x905d
    8f3c:	673d                	.insn	2, 0x673d
    8f3e:	4185c003          	lbu	zero,1048(a1)
    8f42:	3ca23333          	.insn	4, 0x3ca23333
    8f46:	9be8                	.insn	2, 0x9be8
    8f48:	c214                	.insn	2, 0xc214
    8f4a:	7c5eaa7b          	.insn	4, 0x7c5eaa7b
    8f4e:	51ca                	.insn	2, 0x51ca
    8f50:	2aac                	.insn	2, 0x2aac
    8f52:	7442                	.insn	2, 0x7442
    8f54:	9c8172c7          	.insn	4, 0x9c8172c7
    8f58:	f6fe8d5b          	.insn	4, 0xf6fe8d5b
    8f5c:	afd4                	.insn	2, 0xafd4
    8f5e:	7c76                	.insn	2, 0x7c76
    8f60:	84b6                	.insn	2, 0x84b6
    8f62:	27524957          	.insn	4, 0x27524957
    8f66:	96bdcdf7          	.insn	4, 0x96bdcdf7
    8f6a:	3d02                	.insn	2, 0x3d02
    8f6c:	8a531f43          	fmadd.d	ft10,ft6,ft5,fa7,rtz
    8f70:	0055                	.insn	2, 0x0055
    8f72:	d318                	.insn	2, 0xd318
    8f74:	7a1d3227          	fsd	ft1,1956(s10) # 2e368b86 <_ebss+0xe367cca>
    8f78:	f482                	.insn	2, 0xf482
    8f7a:	f6b8db67          	.insn	4, 0xf6b8db67
    8f7e:	6bce46b3          	.insn	4, 0x6bce46b3
    8f82:	b4cd                	.insn	2, 0xb4cd
    8f84:	79d9f38f          	.insn	4, 0x79d9f38f
    8f88:	cdc6                	.insn	2, 0xcdc6
    8f8a:	e0ad                	.insn	2, 0xe0ad
    8f8c:	ac61                	.insn	2, 0xac61
    8f8e:	1b887e8f          	.insn	4, 0x1b887e8f
    8f92:	3ca1                	.insn	2, 0x3ca1
    8f94:	2750                	.insn	2, 0x2750
    8f96:	d575                	.insn	2, 0xd575
    8f98:	de3c                	.insn	2, 0xde3c
    8f9a:	7a4acdd7          	.insn	4, 0x7a4acdd7
    8f9e:	a9562547          	fmsub.s	fa0,fa2,fs5,fs5,rdn
    8fa2:	667f 3e05 e486 71e0 	.insn	22, 0xeb4f503b2a677bb0bf65fa294bba71e0e4863e05667f
    8faa:	4bba fa29 bf65 7bb0 
    8fb2:	2a67 503b eb4f 
    8fb8:	f5da                	.insn	2, 0xf5da
    8fba:	92ce                	.insn	2, 0x92ce
    8fbc:	0208                	.insn	2, 0x0208
    8fbe:	ed7d                	.insn	2, 0xed7d
    8fc0:	99e254cf          	fnmadd.s	fs1,ft4,ft10,fs3,unknown
    8fc4:	aa61                	.insn	2, 0xaa61
    8fc6:	4061                	.insn	2, 0x4061
    8fc8:	5c34                	.insn	2, 0x5c34
    8fca:	5fd9                	.insn	2, 0x5fd9
    8fcc:	1cce                	.insn	2, 0x1cce
    8fce:	eb39e8bb          	.insn	4, 0xeb39e8bb
    8fd2:	3ad8                	.insn	2, 0x3ad8
    8fd4:	528c                	.insn	2, 0x528c
    8fd6:	9959                	.insn	2, 0x9959
    8fd8:	a398                	.insn	2, 0xa398
    8fda:	d8c8                	.insn	2, 0xd8c8
    8fdc:	9358                	.insn	2, 0x9358
    8fde:	a6b5                	.insn	2, 0xa6b5
    8fe0:	f9fe                	.insn	2, 0xf9fe
    8fe2:	cc0e9353          	.insn	4, 0xcc0e9353
    8fe6:	6b4d436f          	jal	t1,dd69a <_erodata+0xd401a>
    8fea:	01f4                	.insn	2, 0x01f4
    8fec:	94f0                	.insn	2, 0x94f0
    8fee:	0c70                	.insn	2, 0x0c70
    8ff0:	3f18                	.insn	2, 0x3f18
    8ff2:	d38a                	.insn	2, 0xd38a
    8ff4:	a965                	.insn	2, 0xa965
    8ff6:	6344                	.insn	2, 0x6344
    8ff8:	b985                	.insn	2, 0xb985
    8ffa:	9490                	.insn	2, 0x9490
    8ffc:	9245ad67          	.insn	4, 0x9245ad67
    9000:	9689                	.insn	2, 0x9689
    9002:	2c7823b3          	.insn	4, 0x2c7823b3
    9006:	8151                	.insn	2, 0x8151
    9008:	d2b9aaeb          	.insn	4, 0xd2b9aaeb
    900c:	bece                	.insn	2, 0xbece
    900e:	fe94                	.insn	2, 0xfe94
    9010:	4536                	.insn	2, 0x4536
    9012:	2f665e2f          	.insn	4, 0x2f665e2f
    9016:	345a9ddb          	.insn	4, 0x345a9ddb
    901a:	3c0c                	.insn	2, 0x3c0c
    901c:	4dbc                	.insn	2, 0x4dbc
    901e:	ee20                	.insn	2, 0xee20
    9020:	20a1                	.insn	2, 0x20a1
    9022:	3eb1                	.insn	2, 0x3eb1
    9024:	2146                	.insn	2, 0x2146
    9026:	fe90                	.insn	2, 0xfe90
    9028:	adea                	.insn	2, 0xadea
    902a:	708222a7          	fsw	fs0,1797(tp) # 633625e5 <_ebss+0x43361729>
    902e:	fca4                	.insn	2, 0xfca4
    9030:	f41c                	.insn	2, 0xf41c
    9032:	6f31                	.insn	2, 0x6f31
    9034:	3ab8                	.insn	2, 0x3ab8
    9036:	db41                	.insn	2, 0xdb41
    9038:	6f56b8bb          	.insn	4, 0x6f56b8bb
    903c:	d8a5                	.insn	2, 0xd8a5
    903e:	88f9                	.insn	2, 0x88f9
    9040:	df5c7693          	and	a3,s8,-523
    9044:	b0f9                	.insn	2, 0xb0f9
    9046:	f3f4                	.insn	2, 0xf3f4
    9048:	09e4                	.insn	2, 0x09e4
    904a:	b6cc                	.insn	2, 0xb6cc
    904c:	b11e                	.insn	2, 0xb11e
    904e:	f3187483          	.insn	4, 0xf3187483
    9052:	7570105b          	.insn	4, 0x7570105b
    9056:	d47a                	.insn	2, 0xd47a
    9058:	5b1c                	.insn	2, 0x5b1c
    905a:	f67f                	.insn	2, 0xf67f
    905c:	9b8234ab          	.insn	4, 0x9b8234ab
    9060:	f30855b7          	lui	a1,0xf3085
    9064:	a53a                	.insn	2, 0xa53a
    9066:	8c7d                	.insn	2, 0x8c7d
    9068:	69a768e7          	.insn	4, 0x69a768e7
    906c:	7895                	.insn	2, 0x7895
    906e:	5206                	.insn	2, 0x5206
    9070:	8949                	.insn	2, 0x8949
    9072:	05ac6b53          	.insn	4, 0x05ac6b53
    9076:	c285                	.insn	2, 0xc285
    9078:	a67e                	.insn	2, 0xa67e
    907a:	bd01                	.insn	2, 0xbd01
    907c:	d2aa                	.insn	2, 0xd2aa
    907e:	9b50                	.insn	2, 0x9b50

00009080 <precomp_g_pow2_192_table_w4>:
	...
    90a0:	0001                	.insn	2, 0x0001
	...
    90aa:	0000                	.insn	2, 0x
    90ac:	ffff                	.insn	2, 0xffff
    90ae:	ffff                	.insn	2, 0xffff
    90b0:	ffff                	.insn	2, 0xffff
    90b2:	ffff                	.insn	2, 0xffff
    90b4:	ffff                	.insn	2, 0xffff
    90b6:	ffff                	.insn	2, 0xffff
    90b8:	fffe                	.insn	2, 0xfffe
    90ba:	ffff                	.insn	2, 0xffff
	...
    90e0:	3e06                	.insn	2, 0x3e06
    90e2:	7581                	.insn	2, 0x7581
    90e4:	428e                	.insn	2, 0x428e
    90e6:	6d39                	.insn	2, 0x6d39
    90e8:	1308                	.insn	2, 0x1308
    90ea:	73fe                	.insn	2, 0x73fe
    90ec:	76f6                	.insn	2, 0x76f6
    90ee:	a72ff9d3          	.insn	4, 0xa72ff9d3
    90f2:	1044                	.insn	2, 0x1044
    90f4:	aa12                	.insn	2, 0xaa12
    90f6:	6f1c                	.insn	2, 0x6f1c
    90f8:	e63a                	.insn	2, 0xe63a
    90fa:	bb8290a7          	.insn	4, 0xbb8290a7
    90fe:	522c                	.insn	2, 0x522c
    9100:	d9a02bf3          	csrr	s7,0xd9a
    9104:	8b68                	.insn	2, 0x8b68
    9106:	9485                	.insn	2, 0x9485
    9108:	56f1c467          	.insn	4, 0x56f1c467
    910c:	70003cd3          	.insn	4, 0x70003cd3
    9110:	e312                	.insn	2, 0xe312
    9112:	5ce6                	.insn	2, 0x5ce6
    9114:	b062                	.insn	2, 0xb062
    9116:	6315                	.insn	2, 0x6315
    9118:	7479                	.insn	2, 0x7479
    911a:	7f05                	.insn	2, 0x7f05
    911c:	e160                	.insn	2, 0xe160
    911e:	02f6728b          	.insn	4, 0x02f6728b
    9122:	2f2a                	.insn	2, 0x2f2a
    9124:	ad78                	.insn	2, 0xad78
    9126:	f2ba                	.insn	2, 0xf2ba
    9128:	33bc                	.insn	2, 0x33bc
    912a:	2f0d                	.insn	2, 0x2f0d
    912c:	0ec88707          	.insn	4, 0x0ec88707
    9130:	51486a87          	.insn	4, 0x51486a87
    9134:	6f7a                	.insn	2, 0x6f7a
    9136:	45a4                	.insn	2, 0x45a4
    9138:	c331                	.insn	2, 0xc331
    913a:	549e                	.insn	2, 0x549e
    913c:	c3af7833          	.insn	4, 0xc3af7833
    9140:	d9f5                	.insn	2, 0xd9f5
    9142:	f818                	.insn	2, 0xf818
    9144:	6042                	.insn	2, 0x6042
    9146:	7479                	.insn	2, 0x7479
    9148:	44f4                	.insn	2, 0x44f4
    914a:	45a5                	.insn	2, 0x45a5
    914c:	cb09410f          	.insn	4, 0xcb09410f
    9150:	8164                	.insn	2, 0x8164
    9152:	d8e5                	.insn	2, 0xd8e5
    9154:	5980                	.insn	2, 0x5980
    9156:	3b3e                	.insn	2, 0x3b3e
    9158:	cdd5                	.insn	2, 0xcdd5
    915a:	08d2                	.insn	2, 0x08d2
    915c:	d5dc                	.insn	2, 0xd5dc
    915e:	edc6801b          	.insn	4, 0xedc6801b
    9162:	83f4                	.insn	2, 0x83f4
    9164:	c5ea07b3          	.insn	4, 0xc5ea07b3
    9168:	6a8c                	.insn	2, 0x6a8c
    916a:	444c                	.insn	2, 0x444c
    916c:	8f95                	.insn	2, 0x8f95
    916e:	6c10                	.insn	2, 0x6c10
    9170:	79bc051b          	.insn	4, 0x79bc051b
    9174:	210e                	.insn	2, 0x210e
    9176:	9e62                	.insn	2, 0x9e62
    9178:	cc59                	.insn	2, 0xcc59
    917a:	d7cba28b          	.insn	4, 0xd7cba28b
    917e:	c3f2                	.insn	2, 0xc3f2
    9180:	bc70                	.insn	2, 0xbc70
    9182:	5e5f 3e24 d413      	.insn	6, 0xd4133e245e5f
    9188:	716c                	.insn	2, 0x716c
    918a:	9432                	.insn	2, 0x9432
    918c:	57ba                	.insn	2, 0x57ba
    918e:	5820                	.insn	2, 0x5820
    9190:	0fba                	.insn	2, 0x0fba
    9192:	011e                	.insn	2, 0x011e
    9194:	0cb0                	.insn	2, 0x0cb0
    9196:	6269e5cf          	fnmadd.d	fa1,fs3,ft6,fa2,unknown
    919a:	e066                	.insn	2, 0xe066
    919c:	85b6                	.insn	2, 0x85b6
    919e:	b732                	.insn	2, 0xb732
    91a0:	f438                	.insn	2, 0xf438
    91a2:	6335                	.insn	2, 0x6335
    91a4:	5d71c6d7          	.insn	4, 0x5d71c6d7
    91a8:	4fc9                	.insn	2, 0x4fc9
    91aa:	585d                	.insn	2, 0x585d
    91ac:	34c14d9b          	.insn	4, 0x34c14d9b
    91b0:	1198a9ef          	jal	s3,93ac8 <_erodata+0x8a448>
    91b4:	1e0d                	.insn	2, 0x1e0d
    91b6:	260a                	.insn	2, 0x260a
    91b8:	5eb8                	.insn	2, 0x5eb8
    91ba:	9e5f cf6a 2caa      	.insn	6, 0x2caacf6a9e5f
    91c0:	8ff1                	.insn	2, 0x8ff1
    91c2:	35d8                	.insn	2, 0x35d8
    91c4:	82dd                	.insn	2, 0x82dd
    91c6:	9732                	.insn	2, 0x9732
    91c8:	e71a                	.insn	2, 0xe71a
    91ca:	cf5a                	.insn	2, 0xcf5a
    91cc:	a260                	.insn	2, 0xa260
    91ce:	a4a1                	.insn	2, 0xa4a1
    91d0:	0220                	.insn	2, 0x0220
    91d2:	67a2                	.insn	2, 0x67a2
    91d4:	a61f 3a9b bf0f      	.insn	6, 0xbf0f3a9ba61f
    91da:	2794                	.insn	2, 0x2794
    91dc:	d1b0                	.insn	2, 0xd1b0
    91de:	286d                	.insn	2, 0x286d
    91e0:	e479                	.insn	2, 0xe479
    91e2:	aa16                	.insn	2, 0xaa16
    91e4:	377a                	.insn	2, 0x377a
    91e6:	29ddca17          	auipc	s4,0x29ddc
    91ea:	4485                	.insn	2, 0x4485
    91ec:	b4ce                	.insn	2, 0xb4ce
    91ee:	1e1d                	.insn	2, 0x1e1d
    91f0:	1118                	.insn	2, 0x1118
    91f2:	5370                	.insn	2, 0x5370
    91f4:	9201bf67          	.insn	4, 0x9201bf67
    91f8:	0f99                	.insn	2, 0x0f99
    91fa:	cc68                	.insn	2, 0xcc68
    91fc:	647d                	.insn	2, 0x647d
    91fe:	61b4                	.insn	2, 0x61b4
    9200:	1d41525b          	.insn	4, 0x1d41525b
    9204:	57f9                	.insn	2, 0x57f9
    9206:	91cc743f c04bd112 	.insn	8, 0xc04bd11291cc743f
    920e:	7edf 9500 8712      	.insn	6, 0x871295007edf
    9214:	4ff0                	.insn	2, 0x4ff0
    9216:	dc1c4f0f          	.insn	4, 0xdc1c4f0f
    921a:	5308                	.insn	2, 0x5308
    921c:	0cd7c2af          	.insn	4, 0x0cd7c2af
    9220:	c175                	.insn	2, 0xc175
    9222:	75f0a813          	slti	a6,ra,1887
    9226:	9ad0                	.insn	2, 0x9ad0
    9228:	8d0c                	.insn	2, 0x8d0c
    922a:	9a10                	.insn	2, 0x9a10
    922c:	43c2                	.insn	2, 0x43c2
    922e:	1a34                	.insn	2, 0x1a34
    9230:	0199                	.insn	2, 0x0199
    9232:	a6bab7e7          	.insn	4, 0xa6bab7e7
    9236:	9ac0                	.insn	2, 0x9ac0
    9238:	4b78f343          	fmadd.d	ft6,fa7,fs7,fs1
    923c:	cb8c                	.insn	2, 0xcb8c
    923e:	db2d                	.insn	2, 0xdb2d
    9240:	a28feac3          	fmadd.d	fs5,ft11,fs0,fs4,unknown
    9244:	6b460a37          	lui	s4,0x6b460
    9248:	5cd1                	.insn	2, 0x5cd1
    924a:	3a64                	.insn	2, 0x3a64
    924c:	5687a5f3          	csrrs	a1,0x568,a5
    9250:	de1c                	.insn	2, 0xde1c
    9252:	47c0                	.insn	2, 0x47c0
    9254:	66332e43          	.insn	4, 0x66332e43
    9258:	4c71                	.insn	2, 0x4c71
    925a:	821a                	.insn	2, 0x821a
    925c:	4c0bbb5b          	.insn	4, 0x4c0bbb5b
    9260:	02cf4043          	fmadd.d	ft0,ft10,fa2,ft0,rmm
    9264:	3016                	.insn	2, 0x3016
    9266:	f954                	.insn	2, 0xf954
    9268:	e311                	.insn	2, 0xe311
    926a:	3d6e                	.insn	2, 0x3d6e
    926c:	89ff c43e 5efb ea74 	.insn	10, 0x1f44ea745efbc43e89ff
    9274:	1f44 
    9276:	50b2                	.insn	2, 0x50b2
    9278:	2d24                	.insn	2, 0x2d24
    927a:	b3b0                	.insn	2, 0xb3b0
    927c:	0739                	.insn	2, 0x0739
    927e:	4e72                	.insn	2, 0x4e72
    9280:	ede0                	.insn	2, 0xede0
    9282:	09ce                	.insn	2, 0x09ce
    9284:	7318                	.insn	2, 0x7318
    9286:	0ac0                	.insn	2, 0x0ac0
    9288:	a395                	.insn	2, 0xa395
    928a:	345b87e3          	beq	s7,t0,9dd8 <_erodata+0x758>
    928e:	b794                	.insn	2, 0xb794
    9290:	4d85                	.insn	2, 0x4d85
    9292:	5fd2                	.insn	2, 0x5fd2
    9294:	cf36                	.insn	2, 0xcf36
    9296:	da48a5d3          	.insn	4, 0xda48a5d3
    929a:	1d26                	.insn	2, 0x1d26
    929c:	e856                	.insn	2, 0xe856
    929e:	6f50                	.insn	2, 0x6f50
    92a0:	3294bdbf 6ef18b0f 	.insn	8, 0x6ef18b0f3294bdbf
    92a8:	fd79                	.insn	2, 0xfd79
    92aa:	0f29                	.insn	2, 0x0f29
    92ac:	89bb53eb          	.insn	4, 0x89bb53eb
    92b0:	721a                	.insn	2, 0x721a
    92b2:	8c5723d3          	.insn	4, 0x8c5723d3
    92b6:	f481                	.insn	2, 0xf481
    92b8:	a5b2                	.insn	2, 0xa5b2
    92ba:	02b5                	.insn	2, 0x02b5
    92bc:	7825                	.insn	2, 0x7825
    92be:	f9d7262b          	.insn	4, 0xf9d7262b
    92c2:	7009                	.insn	2, 0x7009
    92c4:	3935                	.insn	2, 0x3935
    92c6:	d6da                	.insn	2, 0xd6da
    92c8:	d4f1                	.insn	2, 0xd4f1
    92ca:	789e6ba3          	.insn	4, 0x789e6ba3
    92ce:	cb44                	.insn	2, 0xcb44
    92d0:	136e2cab          	.insn	4, 0x136e2cab
    92d4:	bcc6                	.insn	2, 0xbcc6
    92d6:	0e65                	.insn	2, 0x0e65
    92d8:	29bc                	.insn	2, 0x29bc
    92da:	df70                	.insn	2, 0xdf70
    92dc:	def4                	.insn	2, 0xdef4
    92de:	575f 24fa 48cf      	.insn	6, 0x48cf24fa575f
    92e4:	541a                	.insn	2, 0x541a
    92e6:	eabe                	.insn	2, 0xeabe
    92e8:	c469                	.insn	2, 0xc469
    92ea:	bde5b2af          	.insn	4, 0xbde5b2af
    92ee:	91a1                	.insn	2, 0x91a1
    92f0:	2331                	.insn	2, 0x2331
    92f2:	6b46                	.insn	2, 0x6b46
    92f4:	fd05                	.insn	2, 0xfd05
    92f6:	ff39                	.insn	2, 0xff39
    92f8:	4fce                	.insn	2, 0x4fce
    92fa:	2870                	.insn	2, 0x2870
    92fc:	4ee0                	.insn	2, 0x4ee0
    92fe:	6a6506b7          	lui	a3,0x6a650
    9302:	944653e3          	bge	a2,tp,8c48 <precomp_g_pow2_128_table_w4+0x1c8>
    9306:	1c00                	.insn	2, 0x1c00
    9308:	00e1                	.insn	2, 0x00e1
    930a:	c30c                	.insn	2, 0xc30c
    930c:	2541                	.insn	2, 0x2541
    930e:	bfcf5257          	.insn	4, 0xbfcf5257
    9312:	d278                	.insn	2, 0xd278
    9314:	6bd6                	.insn	2, 0x6bd6
    9316:	de70a39b          	.insn	4, 0xde70a39b
    931a:	857856d7          	.insn	4, 0x857856d7
    931e:	ca5a4c1b          	.insn	4, 0xca5a4c1b
    9322:	5852                	.insn	2, 0x5852
    9324:	a311                	.insn	2, 0xa311
    9326:	b7d6                	.insn	2, 0xb7d6
    9328:	7951                	.insn	2, 0x7951
    932a:	2eae                	.insn	2, 0x2eae
    932c:	4241fc37          	lui	s8,0x4241f
    9330:	7e78                	.insn	2, 0x7e78
    9332:	85432bd7          	.insn	4, 0x85432bd7
    9336:	1b39ce47          	fmsub.d	ft8,fs3,fs3,ft3,rmm
    933a:	198c                	.insn	2, 0x198c
    933c:	b7776b43          	.insn	4, 0xb7776b43
    9340:	36aa                	.insn	2, 0x36aa
    9342:	d4d6                	.insn	2, 0xd4d6
    9344:	3b70                	.insn	2, 0x3b70
    9346:	392a531b          	.insn	4, 0x392a531b
    934a:	ad1f fbc9 f3f9      	.insn	6, 0xf3f9fbc9ad1f
    9350:	88853b53          	.insn	4, 0x88853b53
    9354:	81e8                	.insn	2, 0x81e8
    9356:	6544                	.insn	2, 0x6544
    9358:	8573357f 0545c9b1 	.insn	16, 0x97a4e7778a3380840545c9b18573357f
    9360:	8a338084 97a4e777 
    9368:	9279                	.insn	2, 0x9279
    936a:	9f9c                	.insn	2, 0x9f9c
    936c:	f57b886f          	jal	a6,fffc22c2 <_ebss+0xdffc1406>
    9370:	4325                	.insn	2, 0x4325
    9372:	66b2                	.insn	2, 0x66b2
    9374:	1b8a                	.insn	2, 0x1b8a
    9376:	3b1e                	.insn	2, 0x3b1e
    9378:	fbd8                	.insn	2, 0xfbd8
    937a:	af78156b          	.insn	4, 0xaf78156b
    937e:	76f9                	.insn	2, 0x76f9
    9380:	ba18                	.insn	2, 0xba18
    9382:	63d5                	.insn	2, 0x63d5
    9384:	5f0c                	.insn	2, 0x5f0c
    9386:	e374                	.insn	2, 0xe374
    9388:	23857a83          	.insn	4, 0x23857a83
    938c:	17233d77          	.insn	4, 0x17233d77
    9390:	afb68ad7          	.insn	4, 0xafb68ad7
    9394:	3220                	.insn	2, 0x3220
    9396:	f610                	.insn	2, 0xf610
    9398:	f358                	.insn	2, 0xf358
    939a:	2dba                	.insn	2, 0x2dba
    939c:	8dfd                	.insn	2, 0x8dfd
    939e:	9e54                	.insn	2, 0x9e54
    93a0:	474c                	.insn	2, 0x474c
    93a2:	f7e2                	.insn	2, 0xf7e2
    93a4:	60e2                	.insn	2, 0x60e2
    93a6:	31a2                	.insn	2, 0x31a2
    93a8:	00e8                	.insn	2, 0x00e8
    93aa:	6546                	.insn	2, 0x6546
    93ac:	9ff0                	.insn	2, 0x9ff0
    93ae:	e4e2                	.insn	2, 0xe4e2
    93b0:	ba62                	.insn	2, 0xba62
    93b2:	d48d                	.insn	2, 0xd48d
    93b4:	6db837d7          	.insn	4, 0x6db837d7
    93b8:	12f2                	.insn	2, 0x12f2
    93ba:	1cc9                	.insn	2, 0x1cc9
    93bc:	c09ab50f          	.insn	4, 0xc09ab50f
    93c0:	1249                	.insn	2, 0x1249
    93c2:	b414                	.insn	2, 0xb414
    93c4:	3f8c                	.insn	2, 0x3f8c
    93c6:	12ff0093          	add	ra,t5,303
    93ca:	bf80                	.insn	2, 0xbf80
    93cc:	5cfa                	.insn	2, 0x5cfa
    93ce:	7b65                	.insn	2, 0x7b65
    93d0:	c366                	.insn	2, 0xc366
    93d2:	2c56                	.insn	2, 0x2c56
    93d4:	a650                	.insn	2, 0xa650
    93d6:	2401                	.insn	2, 0x2401
    93d8:	d22c                	.insn	2, 0xd22c
    93da:	6677a4d3          	.insn	4, 0x6677a4d3
    93de:	6ada                	.insn	2, 0x6ada
    93e0:	d7df dd8f e0b0      	.insn	6, 0xe0b0dd8fd7df
    93e6:	2416020b          	.insn	4, 0x2416020b
    93ea:	32c5                	.insn	2, 0x32c5
    93ec:	a83455d3          	.insn	4, 0xa83455d3
    93f0:	e3a9ff97          	auipc	t6,0xe3a9f
    93f4:	a7280de7          	jalr	s11,-1422(a6)
    93f8:	29c0                	.insn	2, 0x29c0
    93fa:	7a42                	.insn	2, 0x7a42
    93fc:	76b62f7b          	.insn	4, 0x76b62f7b
    9400:	9fc711cf          	.insn	4, 0x9fc711cf
    9404:	d306                	.insn	2, 0xd306
    9406:	0df2                	.insn	2, 0x0df2
    9408:	ab3df0eb          	.insn	4, 0xab3df0eb
    940c:	254adc93          	.insn	4, 0x254adc93
    9410:	9669                	.insn	2, 0x9669
    9412:	1adc953b          	.insn	4, 0x1adc953b
    9416:	8340                	.insn	2, 0x8340
    9418:	1d6a71f3          	csrrc	gp,0x1d6,20
    941c:	2839                	.insn	2, 0x2839
    941e:	f27c                	.insn	2, 0xf27c
    9420:	b4c6                	.insn	2, 0xb4c6
    9422:	edd9                	.insn	2, 0xedd9
    9424:	8526                	.insn	2, 0x8526
    9426:	87e4                	.insn	2, 0x87e4
    9428:	85de                	.insn	2, 0x85de
    942a:	8afd                	.insn	2, 0x8afd
    942c:	7a79                	.insn	2, 0x7a79
    942e:	d20e230b          	.insn	4, 0xd20e230b
    9432:	b8bd                	.insn	2, 0xb8bd
    9434:	69c1                	.insn	2, 0x69c1
    9436:	dd79                	.insn	2, 0xdd79
    9438:	ca78                	.insn	2, 0xca78
    943a:	af84                	.insn	2, 0xaf84
    943c:	9d51b2a7          	fsd	fs5,-1595(gp) # 363411ef <_ebss+0x16340333>
    9440:	dac80a03          	lb	s4,-596(a6)
    9444:	9625                	.insn	2, 0x9625
    9446:	a06e                	.insn	2, 0xa06e
    9448:	bcc0                	.insn	2, 0xbcc0
    944a:	a616                	.insn	2, 0xa616
    944c:	7d4d                	.insn	2, 0x7d4d
    944e:	5635                	.insn	2, 0x5635
    9450:	50ad                	.insn	2, 0x50ad
    9452:	4196                	.insn	2, 0x4196
    9454:	15ca                	.insn	2, 0x15ca
    9456:	71ff                	.insn	2, 0x71ff
    9458:	5112                	.insn	2, 0x5112
    945a:	ea577303          	.insn	4, 0xea577303
    945e:	759e                	.insn	2, 0x759e
    9460:	ea698c0b          	.insn	4, 0xea698c0b
    9464:	fe0a                	.insn	2, 0xfe0a
    9466:	b864                	.insn	2, 0xb864
    9468:	8724ae53          	.insn	4, 0x8724ae53
    946c:	5729                	.insn	2, 0x5729
    946e:	b3d0                	.insn	2, 0xb3d0
    9470:	16c1                	.insn	2, 0x16c1
    9472:	902c                	.insn	2, 0x902c
    9474:	4b6c                	.insn	2, 0x4b6c
    9476:	9465                	.insn	2, 0x9465
    9478:	2125                	.insn	2, 0x2125
    947a:	2221                	.insn	2, 0x2221
    947c:	d1b0                	.insn	2, 0xd1b0
    947e:	9ddd                	.insn	2, 0x9ddd
    9480:	0e0e                	.insn	2, 0x0e0e
    9482:	5440                	.insn	2, 0x5440
    9484:	eb03dfe7          	.insn	4, 0xeb03dfe7
    9488:	baade4bf 8c172c3c 	.insn	8, 0x8c172c3cbaade4bf
    9490:	42f0                	.insn	2, 0x42f0
    9492:	ccd1                	.insn	2, 0xccd1
    9494:	4a54                	.insn	2, 0x4a54
    9496:	6553265b          	.insn	4, 0x6553265b
    949a:	d010                	.insn	2, 0xd010
    949c:	245f bbd9 52a6      	.insn	6, 0x52a6bbd9245f
    94a2:	b54ff15b          	.insn	4, 0xb54ff15b
    94a6:	bb8d                	.insn	2, 0xbb8d
    94a8:	a8aa                	.insn	2, 0xa8aa
    94aa:	c9bc336b          	.insn	4, 0xc9bc336b
    94ae:	896e                	.insn	2, 0x896e
    94b0:	dc76                	.insn	2, 0xdc76
    94b2:	db2e                	.insn	2, 0xdb2e
    94b4:	c5b5                	.insn	2, 0xc5b5
    94b6:	f06d                	.insn	2, 0xf06d
    94b8:	5dd5                	.insn	2, 0x5dd5
    94ba:	a03b7653          	.insn	4, 0xa03b7653
    94be:	1f8e                	.insn	2, 0x1f8e
    94c0:	c51e                	.insn	2, 0xc51e
    94c2:	b7c99027          	.insn	4, 0xb7c99027
    94c6:	2fc6                	.insn	2, 0x2fc6
    94c8:	ed0c                	.insn	2, 0xed0c
    94ca:	1652                	.insn	2, 0x1652
    94cc:	84f4                	.insn	2, 0x84f4
    94ce:	0f8a                	.insn	2, 0x0f8a
    94d0:	1aa5                	.insn	2, 0x1aa5
    94d2:	f828                	.insn	2, 0xf828
    94d4:	a70c43b3          	.insn	4, 0xa70c43b3
    94d8:	1bc2                	.insn	2, 0x1bc2
    94da:	35e0                	.insn	2, 0x35e0
    94dc:	be34                	.insn	2, 0xbe34
    94de:	0812                	.insn	2, 0x0812
    94e0:	0196                	.insn	2, 0x0196
    94e2:	673d                	.insn	2, 0x673d
    94e4:	519f 5388 887f      	.insn	6, 0x887f5388519f
    94ea:	28d8                	.insn	2, 0x28d8
    94ec:	ce47e0af          	.insn	4, 0xce47e0af
    94f0:	0646                	.insn	2, 0x0646
    94f2:	33ee                	.insn	2, 0x33ee
    94f4:	2fe5                	.insn	2, 0x2fe5
    94f6:	5c54                	.insn	2, 0x5c54
    94f8:	d808                	.insn	2, 0xd808
    94fa:	f38b2393          	slti	t2,s6,-200
    94fe:	b145                	.insn	2, 0xb145
    9500:	adc831ff b0f5a1a0 	.insn	16, 0x9ee35b3ecfcb75eeb0f5a1a0adc831ff
    9508:	cfcb75ee 9ee35b3e 
    9510:	8510                	.insn	2, 0x8510
    9512:	a830                	.insn	2, 0xa830
    9514:	6474                	.insn	2, 0x6474
    9516:	0e3c                	.insn	2, 0x0e3c
    9518:	61f99aa7          	.insn	4, 0x61f99aa7
    951c:	3cb6                	.insn	2, 0x3cb6
    951e:	265d                	.insn	2, 0x265d
    9520:	28dd                	.insn	2, 0x28dd
    9522:	7fb4                	.insn	2, 0x7fb4
    9524:	4b86                	.insn	2, 0x4b86
    9526:	fd9c                	.insn	2, 0xfd9c
    9528:	5b1f 21f8 58f5      	.insn	6, 0x58f521f85b1f
    952e:	90f6                	.insn	2, 0x90f6
    9530:	6426032f          	.insn	4, 0x6426032f
    9534:	1cfc                	.insn	2, 0x1cfc
    9536:	a3f4                	.insn	2, 0xa3f4
    9538:	efa1                	.insn	2, 0xefa1
    953a:	6645                	.insn	2, 0x6645
    953c:	457bb73f 43ca745a 	.insn	8, 0x43ca745a457bb73f
    9544:	5fdf8eb3          	.insn	4, 0x5fdf8eb3
    9548:	97a1842f          	.insn	4, 0x97a1842f
    954c:	c699                	.insn	2, 0xc699
    954e:	b81c                	.insn	2, 0xb81c
    9550:	f5f6                	.insn	2, 0xf5f6
    9552:	2830                	.insn	2, 0x2830
    9554:	052e                	.insn	2, 0x052e
    9556:	6bd0                	.insn	2, 0x6bd0
    9558:	c096                	.insn	2, 0xc096
    955a:	ddc0                	.insn	2, 0xddc0
    955c:	eab9                	.insn	2, 0xeab9
    955e:	318a                	.insn	2, 0x318a
    9560:	ebcd                	.insn	2, 0xebcd
    9562:	a1fc                	.insn	2, 0xa1fc
    9564:	511d173f 62e14146 	.insn	8, 0x62e14146511d173f
    956c:	8bba                	.insn	2, 0x8bba
    956e:	2aea197f d7a0a5d0 	.insn	12, 0xba4c0e5bd7a0a5d02aea197f
    9576:	ba4c0e5b 
    957a:	d91e78c3          	fmadd.s	fa7,ft8,fa7,fs11
    957e:	09de                	.insn	2, 0x09de
    9580:	d0de                	.insn	2, 0xd0de
    9582:	be56                	.insn	2, 0xbe56
    9584:	adbd704f          	.insn	4, 0xadbd704f
    9588:	390f9af3          	csrrw	s5,0x390,t6
    958c:	e485                	.insn	2, 0xe485
    958e:	2444                	.insn	2, 0x2444
    9590:	1085                	.insn	2, 0x1085
    9592:	6451                	.insn	2, 0x6451
    9594:	e0b6                	.insn	2, 0xe0b6
    9596:	8ad1                	.insn	2, 0x8ad1
    9598:	6f60                	.insn	2, 0x6f60
    959a:	3962                	.insn	2, 0x3962
    959c:	03e8                	.insn	2, 0x03e8
    959e:	6530                	.insn	2, 0x6530
    95a0:	d261                	.insn	2, 0xd261
    95a2:	0bf1                	.insn	2, 0x0bf1
    95a4:	fd69                	.insn	2, 0xfd69
    95a6:	8872                	.insn	2, 0x8872
    95a8:	5f92                	.insn	2, 0x5f92
    95aa:	52c4                	.insn	2, 0x52c4
    95ac:	84a4                	.insn	2, 0x84a4
    95ae:	18e22d87          	flw	fs11,398(tp) # 18e <poweroff+0x12>
    95b2:	5d19                	.insn	2, 0x5d19
    95b4:	d148                	.insn	2, 0xd148
    95b6:	0195590b          	.insn	4, 0x0195590b
    95ba:	8d1d                	.insn	2, 0x8d1d
    95bc:	988e                	.insn	2, 0x988e
    95be:	65ae                	.insn	2, 0x65ae
    95c0:	3695                	.insn	2, 0x3695
    95c2:	82f4                	.insn	2, 0x82f4
    95c4:	9644                	.insn	2, 0x9644
    95c6:	7511                	.insn	2, 0x7511
    95c8:	d52e                	.insn	2, 0xd52e
    95ca:	87fa                	.insn	2, 0x87fa
    95cc:	215e                	.insn	2, 0x215e
    95ce:	e6ca                	.insn	2, 0xe6ca
    95d0:	9cc6                	.insn	2, 0x9cc6
    95d2:	3d2e                	.insn	2, 0x3d2e
    95d4:	17c0                	.insn	2, 0x17c0
    95d6:	a5dbef03          	.insn	4, 0xa5dbef03
    95da:	a0e3748f          	.insn	4, 0xa0e3748f
    95de:	8399                	.insn	2, 0x8399
    95e0:	7361                	.insn	2, 0x7361
    95e2:	0ff9687b          	.insn	4, 0x0ff9687b
    95e6:	0b9c                	.insn	2, 0x0b9c
    95e8:	fd09                	.insn	2, 0xfd09
    95ea:	b502                	.insn	2, 0xb502
    95ec:	1fa0                	.insn	2, 0x1fa0
    95ee:	2f42                	.insn	2, 0x2f42
    95f0:	cf96                	.insn	2, 0xcf96
    95f2:	f81c                	.insn	2, 0xf81c
    95f4:	618c                	.insn	2, 0x618c
    95f6:	26aa                	.insn	2, 0x26aa
    95f8:	9351                	.insn	2, 0x9351
    95fa:	2902b62f          	.insn	4, 0x2902b62f
    95fe:	5f4c69d3          	.insn	4, 0x5f4c69d3
    9602:	1336                	.insn	2, 0x1336
    9604:	f58c                	.insn	2, 0xf58c
    9606:	5d5e                	.insn	2, 0x5d5e
    9608:	5e0c                	.insn	2, 0x5e0c
    960a:	4180                	.insn	2, 0x4180
    960c:	a399                	.insn	2, 0xa399
    960e:	0fd5                	.insn	2, 0x0fd5
    9610:	8430                	.insn	2, 0x8430
    9612:	146eae37          	lui	t3,0x146ea
    9616:	d526b24b          	.insn	4, 0xd526b24b
    961a:	8bbf96a7          	.insn	4, 0x8bbf96a7
    961e:	8f0417db          	.insn	4, 0x8f0417db
    9622:	02e0                	.insn	2, 0x02e0
    9624:	b284a67b          	.insn	4, 0xb284a67b
    9628:	97ae                	.insn	2, 0x97ae
    962a:	4259                	.insn	2, 0x4259
    962c:	0fd2                	.insn	2, 0x0fd2
    962e:	188c35db          	.insn	4, 0x188c35db
    9632:	1496                	.insn	2, 0x1496
    9634:	7af9                	.insn	2, 0x7af9
    9636:	2624                	.insn	2, 0x2624
    9638:	ae5e4cab          	.insn	4, 0xae5e4cab
    963c:	b899                	.insn	2, 0xb899
    963e:	523a4247          	fmsub.d	ft4,fs4,ft3,fa0,rmm
    9642:	0eb5                	.insn	2, 0x0eb5
    9644:	9cd5                	.insn	2, 0x9cd5
    9646:	7c09                	.insn	2, 0x7c09
    9648:	529b9a87          	.insn	4, 0x529b9a87
    964c:	60a4                	.insn	2, 0x60a4
    964e:	3448                	.insn	2, 0x3448
    9650:	0666                	.insn	2, 0x0666
    9652:	4ca8                	.insn	2, 0x4ca8
    9654:	5630                	.insn	2, 0x5630
    9656:	baea                	.insn	2, 0xbaea
    9658:	e788                	.insn	2, 0xe788
    965a:	87b94b47          	.insn	4, 0x87b94b47
    965e:	c745                	.insn	2, 0xc745
    9660:	d049a787          	flw	fa5,-764(s3) # 9b9a9d04 <_ebss+0x7b9a8e48>
    9664:	8208                	.insn	2, 0x8208
    9666:	1bca                	.insn	2, 0x1bca
    9668:	0e9a                	.insn	2, 0x0e9a
    966a:	fd0c                	.insn	2, 0xfd0c
    966c:	8dd4                	.insn	2, 0x8dd4
    966e:	e7c8e4d3          	.insn	4, 0xe7c8e4d3
    9672:	5ab9                	.insn	2, 0x5ab9
    9674:	Address 0x9674 is out of bounds.


Disassembly of section .data:

20000e00 <pmem>:
20000e00:	0000                	.insn	2, 0x
20000e02:	1000                	.insn	2, 0x1000

20000e04 <FStar_UInt128_u32_64>:
20000e04:	0040                	.insn	2, 0x0040
	...

20000e08 <FStar_UInt128_u32_32>:
20000e08:	0020                	.insn	2, 0x0020
	...
